
zonnescherm.elf:     file format elf32-avr

Sections:
Idx Name          Size      VMA       LMA       File off  Algn
  0 .data         00000000  00800100  00800100  00000ff0  2**0
                  CONTENTS, ALLOC, LOAD, DATA
  1 .text         00000f7c  00000000  00000000  00000074  2**1
                  CONTENTS, ALLOC, LOAD, READONLY, CODE
  2 .bss          0000012f  00800100  00800100  00000ff0  2**0
                  ALLOC
  3 .comment      00000030  00000000  00000000  00000ff0  2**0
                  CONTENTS, READONLY
  4 .note.gnu.avr.deviceinfo 00000040  00000000  00000000  00001020  2**2
                  CONTENTS, READONLY
  5 .debug_aranges 00000168  00000000  00000000  00001060  2**3
                  CONTENTS, READONLY, DEBUGGING
  6 .debug_info   0000170a  00000000  00000000  000011c8  2**0
                  CONTENTS, READONLY, DEBUGGING
  7 .debug_abbrev 0000099a  00000000  00000000  000028d2  2**0
                  CONTENTS, READONLY, DEBUGGING
  8 .debug_line   00000cb8  00000000  00000000  0000326c  2**0
                  CONTENTS, READONLY, DEBUGGING
  9 .debug_frame  00000370  00000000  00000000  00003f24  2**2
                  CONTENTS, READONLY, DEBUGGING
 10 .debug_str    00000691  00000000  00000000  00004294  2**0
                  CONTENTS, READONLY, DEBUGGING
 11 .debug_loc    000007b5  00000000  00000000  00004925  2**0
                  CONTENTS, READONLY, DEBUGGING
 12 .debug_ranges 00000118  00000000  00000000  000050da  2**0
                  CONTENTS, READONLY, DEBUGGING

Disassembly of section .text:

00000000 <__vectors>:
   0:	0c 94 34 00 	jmp	0x68	; 0x68 <__ctors_end>
   4:	0c 94 46 00 	jmp	0x8c	; 0x8c <__bad_interrupt>
   8:	0c 94 68 02 	jmp	0x4d0	; 0x4d0 <__vector_2>
   c:	0c 94 46 00 	jmp	0x8c	; 0x8c <__bad_interrupt>
  10:	0c 94 46 00 	jmp	0x8c	; 0x8c <__bad_interrupt>
  14:	0c 94 46 00 	jmp	0x8c	; 0x8c <__bad_interrupt>
  18:	0c 94 46 00 	jmp	0x8c	; 0x8c <__bad_interrupt>
  1c:	0c 94 46 00 	jmp	0x8c	; 0x8c <__bad_interrupt>
  20:	0c 94 46 00 	jmp	0x8c	; 0x8c <__bad_interrupt>
  24:	0c 94 46 00 	jmp	0x8c	; 0x8c <__bad_interrupt>
  28:	0c 94 46 00 	jmp	0x8c	; 0x8c <__bad_interrupt>
  2c:	0c 94 d8 04 	jmp	0x9b0	; 0x9b0 <__vector_11>
  30:	0c 94 46 00 	jmp	0x8c	; 0x8c <__bad_interrupt>
  34:	0c 94 46 00 	jmp	0x8c	; 0x8c <__bad_interrupt>
  38:	0c 94 46 00 	jmp	0x8c	; 0x8c <__bad_interrupt>
  3c:	0c 94 46 00 	jmp	0x8c	; 0x8c <__bad_interrupt>
  40:	0c 94 c8 02 	jmp	0x590	; 0x590 <__vector_16>
  44:	0c 94 46 00 	jmp	0x8c	; 0x8c <__bad_interrupt>
  48:	0c 94 46 00 	jmp	0x8c	; 0x8c <__bad_interrupt>
  4c:	0c 94 46 00 	jmp	0x8c	; 0x8c <__bad_interrupt>
  50:	0c 94 46 00 	jmp	0x8c	; 0x8c <__bad_interrupt>
  54:	0c 94 46 00 	jmp	0x8c	; 0x8c <__bad_interrupt>
  58:	0c 94 46 00 	jmp	0x8c	; 0x8c <__bad_interrupt>
  5c:	0c 94 46 00 	jmp	0x8c	; 0x8c <__bad_interrupt>
  60:	0c 94 46 00 	jmp	0x8c	; 0x8c <__bad_interrupt>
  64:	0c 94 46 00 	jmp	0x8c	; 0x8c <__bad_interrupt>

00000068 <__ctors_end>:
  68:	11 24       	eor	r1, r1
  6a:	1f be       	out	0x3f, r1	; 63
  6c:	cf ef       	ldi	r28, 0xFF	; 255
  6e:	d8 e0       	ldi	r29, 0x08	; 8
  70:	de bf       	out	0x3e, r29	; 62
  72:	cd bf       	out	0x3d, r28	; 61

00000074 <__do_clear_bss>:
  74:	22 e0       	ldi	r18, 0x02	; 2
  76:	a0 e0       	ldi	r26, 0x00	; 0
  78:	b1 e0       	ldi	r27, 0x01	; 1
  7a:	01 c0       	rjmp	.+2      	; 0x7e <.do_clear_bss_start>

0000007c <.do_clear_bss_loop>:
  7c:	1d 92       	st	X+, r1

0000007e <.do_clear_bss_start>:
  7e:	af 32       	cpi	r26, 0x2F	; 47
  80:	b2 07       	cpc	r27, r18
  82:	e1 f7       	brne	.-8      	; 0x7c <.do_clear_bss_loop>
  84:	0e 94 10 05 	call	0xa20	; 0xa20 <main>
  88:	0c 94 bc 07 	jmp	0xf78	; 0xf78 <_exit>

0000008c <__bad_interrupt>:
  8c:	0c 94 00 00 	jmp	0	; 0x0 <__vectors>

00000090 <get_distance>:
		}
	}
}

void debug_led(){
	PORTB ^= 0x04;
  90:	5c 98       	cbi	0x0b, 4	; 11
  92:	00 00       	nop
  94:	5c 9a       	sbi	0x0b, 4	; 11
  96:	83 e0       	ldi	r24, 0x03	; 3
  98:	8a 95       	dec	r24
  9a:	f1 f7       	brne	.-4      	; 0x98 <get_distance+0x8>
  9c:	00 00       	nop
  9e:	5c 98       	cbi	0x0b, 4	; 11
  a0:	81 e0       	ldi	r24, 0x01	; 1
  a2:	80 93 00 01 	sts	0x0100, r24	; 0x800100 <_edata>
  a6:	08 95       	ret

000000a8 <init_ports>:
  a8:	8f ef       	ldi	r24, 0xFF	; 255
  aa:	84 b9       	out	0x04, r24	; 4
  ac:	54 9a       	sbi	0x0a, 4	; 10
  ae:	53 98       	cbi	0x0a, 3	; 10
  b0:	08 95       	ret

000000b2 <init_int1>:
  b2:	84 e0       	ldi	r24, 0x04	; 4
  b4:	80 93 69 00 	sts	0x0069, r24	; 0x800069 <__TEXT_REGION_LENGTH__+0x7e0069>
  b8:	82 e0       	ldi	r24, 0x02	; 2
  ba:	8d bb       	out	0x1d, r24	; 29
  bc:	08 95       	ret

000000be <init_timer0>:
  be:	81 e0       	ldi	r24, 0x01	; 1
  c0:	85 bd       	out	0x25, r24	; 37
  c2:	16 bc       	out	0x26, r1	; 38
  c4:	80 93 6e 00 	sts	0x006E, r24	; 0x80006e <__TEXT_REGION_LENGTH__+0x7e006e>
  c8:	08 95       	ret

000000ca <uart_init>:
  ca:	10 92 c5 00 	sts	0x00C5, r1	; 0x8000c5 <__TEXT_REGION_LENGTH__+0x7e00c5>
  ce:	83 e3       	ldi	r24, 0x33	; 51
  d0:	80 93 c4 00 	sts	0x00C4, r24	; 0x8000c4 <__TEXT_REGION_LENGTH__+0x7e00c4>
  d4:	10 92 c0 00 	sts	0x00C0, r1	; 0x8000c0 <__TEXT_REGION_LENGTH__+0x7e00c0>
  d8:	88 e1       	ldi	r24, 0x18	; 24
  da:	80 93 c1 00 	sts	0x00C1, r24	; 0x8000c1 <__TEXT_REGION_LENGTH__+0x7e00c1>
  de:	86 e0       	ldi	r24, 0x06	; 6
  e0:	80 93 c2 00 	sts	0x00C2, r24	; 0x8000c2 <__TEXT_REGION_LENGTH__+0x7e00c2>
  e4:	08 95       	ret

000000e6 <ADC_init>:
  e6:	80 e4       	ldi	r24, 0x40	; 64
  e8:	80 93 7c 00 	sts	0x007C, r24	; 0x80007c <__TEXT_REGION_LENGTH__+0x7e007c>
  ec:	87 e8       	ldi	r24, 0x87	; 135
  ee:	80 93 7a 00 	sts	0x007A, r24	; 0x80007a <__TEXT_REGION_LENGTH__+0x7e007a>
  f2:	08 95       	ret

000000f4 <eeprom_init>:
  f4:	84 e6       	ldi	r24, 0x64	; 100
  f6:	90 e0       	ldi	r25, 0x00	; 0
  f8:	0e 94 a2 07 	call	0xf44	; 0xf44 <eeprom_read_byte>
  fc:	81 30       	cpi	r24, 0x01	; 1
  fe:	f1 f0       	breq	.+60     	; 0x13c <eeprom_init+0x48>
 100:	66 e9       	ldi	r22, 0x96	; 150
 102:	80 e0       	ldi	r24, 0x00	; 0
 104:	90 e0       	ldi	r25, 0x00	; 0
 106:	0e 94 aa 07 	call	0xf54	; 0xf54 <eeprom_update_byte>
 10a:	65 e0       	ldi	r22, 0x05	; 5
 10c:	81 e0       	ldi	r24, 0x01	; 1
 10e:	90 e0       	ldi	r25, 0x00	; 0
 110:	0e 94 aa 07 	call	0xf54	; 0xf54 <eeprom_update_byte>
 114:	68 e1       	ldi	r22, 0x18	; 24
 116:	82 e0       	ldi	r24, 0x02	; 2
 118:	90 e0       	ldi	r25, 0x00	; 0
 11a:	0e 94 aa 07 	call	0xf54	; 0xf54 <eeprom_update_byte>
 11e:	6a e5       	ldi	r22, 0x5A	; 90
 120:	83 e0       	ldi	r24, 0x03	; 3
 122:	90 e0       	ldi	r25, 0x00	; 0
 124:	0e 94 aa 07 	call	0xf54	; 0xf54 <eeprom_update_byte>
 128:	60 e0       	ldi	r22, 0x00	; 0
 12a:	84 e0       	ldi	r24, 0x04	; 4
 12c:	90 e0       	ldi	r25, 0x00	; 0
 12e:	0e 94 aa 07 	call	0xf54	; 0xf54 <eeprom_update_byte>
 132:	61 e0       	ldi	r22, 0x01	; 1
 134:	84 e6       	ldi	r24, 0x64	; 100
 136:	90 e0       	ldi	r25, 0x00	; 0
 138:	0e 94 aa 07 	call	0xf54	; 0xf54 <eeprom_update_byte>
 13c:	08 95       	ret

0000013e <init>:
 13e:	0e 94 54 00 	call	0xa8	; 0xa8 <init_ports>
 142:	0e 94 59 00 	call	0xb2	; 0xb2 <init_int1>
 146:	0e 94 5f 00 	call	0xbe	; 0xbe <init_timer0>
 14a:	0e 94 65 00 	call	0xca	; 0xca <uart_init>
 14e:	0e 94 73 00 	call	0xe6	; 0xe6 <ADC_init>
 152:	0e 94 7a 00 	call	0xf4	; 0xf4 <eeprom_init>
 156:	08 95       	ret

00000158 <get_eeprom>:
 158:	80 e0       	ldi	r24, 0x00	; 0
 15a:	90 e0       	ldi	r25, 0x00	; 0
 15c:	0e 94 a2 07 	call	0xf44	; 0xf44 <eeprom_read_byte>
 160:	80 93 84 01 	sts	0x0184, r24	; 0x800184 <max_dist>
 164:	81 e0       	ldi	r24, 0x01	; 1
 166:	90 e0       	ldi	r25, 0x00	; 0
 168:	0e 94 a2 07 	call	0xf44	; 0xf44 <eeprom_read_byte>
 16c:	80 93 09 01 	sts	0x0109, r24	; 0x800109 <min_dist>
 170:	82 e0       	ldi	r24, 0x02	; 2
 172:	90 e0       	ldi	r25, 0x00	; 0
 174:	0e 94 a2 07 	call	0xf44	; 0xf44 <eeprom_read_byte>
 178:	90 e0       	ldi	r25, 0x00	; 0
 17a:	90 93 2d 02 	sts	0x022D, r25	; 0x80022d <toggle_temp+0x1>
 17e:	80 93 2c 02 	sts	0x022C, r24	; 0x80022c <toggle_temp>
 182:	83 e0       	ldi	r24, 0x03	; 3
 184:	90 e0       	ldi	r25, 0x00	; 0
 186:	0e 94 a2 07 	call	0xf44	; 0xf44 <eeprom_read_byte>
 18a:	80 93 2e 02 	sts	0x022E, r24	; 0x80022e <toggle_light>
 18e:	84 e0       	ldi	r24, 0x04	; 4
 190:	90 e0       	ldi	r25, 0x00	; 0
 192:	0e 94 a2 07 	call	0xf44	; 0xf44 <eeprom_read_byte>
 196:	80 93 7e 01 	sts	0x017E, r24	; 0x80017e <toggle_type>
 19a:	85 e6       	ldi	r24, 0x65	; 101
 19c:	90 e0       	ldi	r25, 0x00	; 0
 19e:	0e 94 a2 07 	call	0xf44	; 0xf44 <eeprom_read_byte>
 1a2:	80 93 7d 01 	sts	0x017D, r24	; 0x80017d <roll_status>
 1a6:	88 0f       	add	r24, r24
 1a8:	8e 5f       	subi	r24, 0xFE	; 254
 1aa:	85 b9       	out	0x05, r24	; 5
 1ac:	08 95       	ret

000001ae <read>:
 1ae:	ec e7       	ldi	r30, 0x7C	; 124
 1b0:	f0 e0       	ldi	r31, 0x00	; 0
 1b2:	90 e4       	ldi	r25, 0x40	; 64
 1b4:	90 83       	st	Z, r25
 1b6:	90 81       	ld	r25, Z
 1b8:	87 70       	andi	r24, 0x07	; 7
 1ba:	98 2b       	or	r25, r24
 1bc:	90 83       	st	Z, r25
 1be:	ea e7       	ldi	r30, 0x7A	; 122
 1c0:	f0 e0       	ldi	r31, 0x00	; 0
 1c2:	80 81       	ld	r24, Z
 1c4:	80 64       	ori	r24, 0x40	; 64
 1c6:	80 83       	st	Z, r24
 1c8:	80 81       	ld	r24, Z
 1ca:	86 fd       	sbrc	r24, 6
 1cc:	fd cf       	rjmp	.-6      	; 0x1c8 <read+0x1a>
 1ce:	80 91 78 00 	lds	r24, 0x0078	; 0x800078 <__TEXT_REGION_LENGTH__+0x7e0078>
 1d2:	90 91 79 00 	lds	r25, 0x0079	; 0x800079 <__TEXT_REGION_LENGTH__+0x7e0079>
 1d6:	08 95       	ret

000001d8 <is_connected>:
 1d8:	80 e0       	ldi	r24, 0x00	; 0
 1da:	0e 94 d7 00 	call	0x1ae	; 0x1ae <read>
 1de:	21 e0       	ldi	r18, 0x01	; 1
 1e0:	89 2b       	or	r24, r25
 1e2:	09 f4       	brne	.+2      	; 0x1e6 <is_connected+0xe>
 1e4:	20 e0       	ldi	r18, 0x00	; 0
 1e6:	20 93 2b 02 	sts	0x022B, r18	; 0x80022b <licht_is_connected>
 1ea:	81 e0       	ldi	r24, 0x01	; 1
 1ec:	0e 94 d7 00 	call	0x1ae	; 0x1ae <read>
 1f0:	21 e0       	ldi	r18, 0x01	; 1
 1f2:	89 2b       	or	r24, r25
 1f4:	09 f4       	brne	.+2      	; 0x1f8 <is_connected+0x20>
 1f6:	20 e0       	ldi	r18, 0x00	; 0
 1f8:	20 93 83 01 	sts	0x0183, r18	; 0x800183 <temp_is_connected>
 1fc:	08 95       	ret

000001fe <transmit>:
 1fe:	e0 ec       	ldi	r30, 0xC0	; 192
 200:	f0 e0       	ldi	r31, 0x00	; 0
 202:	90 81       	ld	r25, Z
 204:	95 ff       	sbrs	r25, 5
 206:	fd cf       	rjmp	.-6      	; 0x202 <transmit+0x4>
 208:	80 93 c6 00 	sts	0x00C6, r24	; 0x8000c6 <__TEXT_REGION_LENGTH__+0x7e00c6>
 20c:	08 95       	ret

0000020e <send_data>:
 20e:	0e 94 ec 00 	call	0x1d8	; 0x1d8 <is_connected>
 212:	80 91 2b 02 	lds	r24, 0x022B	; 0x80022b <licht_is_connected>
 216:	81 30       	cpi	r24, 0x01	; 1
 218:	21 f4       	brne	.+8      	; 0x222 <send_data+0x14>
 21a:	80 91 08 01 	lds	r24, 0x0108	; 0x800108 <average_licht>
 21e:	0e 94 ff 00 	call	0x1fe	; 0x1fe <transmit>
 222:	80 91 83 01 	lds	r24, 0x0183	; 0x800183 <temp_is_connected>
 226:	81 30       	cpi	r24, 0x01	; 1
 228:	21 f4       	brne	.+8      	; 0x232 <send_data+0x24>
 22a:	80 91 07 01 	lds	r24, 0x0107	; 0x800107 <average_temp>
 22e:	0e 94 ff 00 	call	0x1fe	; 0x1fe <transmit>
 232:	60 91 85 01 	lds	r22, 0x0185	; 0x800185 <dist>
 236:	70 91 86 01 	lds	r23, 0x0186	; 0x800186 <dist+0x1>
 23a:	80 91 87 01 	lds	r24, 0x0187	; 0x800187 <dist+0x2>
 23e:	90 91 88 01 	lds	r25, 0x0188	; 0x800188 <dist+0x3>
 242:	0e 94 1e 06 	call	0xc3c	; 0xc3c <__fixunssfsi>
 246:	86 2f       	mov	r24, r22
 248:	0e 94 ff 00 	call	0x1fe	; 0x1fe <transmit>
 24c:	08 95       	ret

0000024e <send_info>:
 24e:	ef 92       	push	r14
 250:	ff 92       	push	r15
 252:	0f 93       	push	r16
 254:	1f 93       	push	r17
 256:	cf 93       	push	r28
 258:	df 93       	push	r29
 25a:	cd b7       	in	r28, 0x3d	; 61
 25c:	de b7       	in	r29, 0x3e	; 62
 25e:	2c 97       	sbiw	r28, 0x0c	; 12
 260:	0f b6       	in	r0, 0x3f	; 63
 262:	f8 94       	cli
 264:	de bf       	out	0x3e, r29	; 62
 266:	0f be       	out	0x3f, r0	; 63
 268:	cd bf       	out	0x3d, r28	; 61
 26a:	0e 94 ec 00 	call	0x1d8	; 0x1d8 <is_connected>
 26e:	83 e4       	ldi	r24, 0x43	; 67
 270:	89 83       	std	Y+1, r24	; 0x01
 272:	8f e6       	ldi	r24, 0x6F	; 111
 274:	8a 83       	std	Y+2, r24	; 0x02
 276:	8d e6       	ldi	r24, 0x6D	; 109
 278:	8b 83       	std	Y+3, r24	; 0x03
 27a:	8f e5       	ldi	r24, 0x5F	; 95
 27c:	8c 83       	std	Y+4, r24	; 0x04
 27e:	82 e5       	ldi	r24, 0x52	; 82
 280:	8d 83       	std	Y+5, r24	; 0x05
 282:	85 e6       	ldi	r24, 0x65	; 101
 284:	8e 83       	std	Y+6, r24	; 0x06
 286:	9e e6       	ldi	r25, 0x6E	; 110
 288:	9f 83       	std	Y+7, r25	; 0x07
 28a:	88 87       	std	Y+8, r24	; 0x08
 28c:	8c e7       	ldi	r24, 0x7C	; 124
 28e:	89 87       	std	Y+9, r24	; 0x09
 290:	90 91 83 01 	lds	r25, 0x0183	; 0x800183 <temp_is_connected>
 294:	9a 87       	std	Y+10, r25	; 0x0a
 296:	8b 87       	std	Y+11, r24	; 0x0b
 298:	80 91 2b 02 	lds	r24, 0x022B	; 0x80022b <licht_is_connected>
 29c:	8c 87       	std	Y+12, r24	; 0x0c
 29e:	8e 01       	movw	r16, r28
 2a0:	0f 5f       	subi	r16, 0xFF	; 255
 2a2:	1f 4f       	sbci	r17, 0xFF	; 255
 2a4:	7e 01       	movw	r14, r28
 2a6:	8d e0       	ldi	r24, 0x0D	; 13
 2a8:	e8 0e       	add	r14, r24
 2aa:	f1 1c       	adc	r15, r1
 2ac:	f8 01       	movw	r30, r16
 2ae:	81 91       	ld	r24, Z+
 2b0:	8f 01       	movw	r16, r30
 2b2:	0e 94 ff 00 	call	0x1fe	; 0x1fe <transmit>
 2b6:	0e 15       	cp	r16, r14
 2b8:	1f 05       	cpc	r17, r15
 2ba:	c1 f7       	brne	.-16     	; 0x2ac <send_info+0x5e>
 2bc:	2c 96       	adiw	r28, 0x0c	; 12
 2be:	0f b6       	in	r0, 0x3f	; 63
 2c0:	f8 94       	cli
 2c2:	de bf       	out	0x3e, r29	; 62
 2c4:	0f be       	out	0x3f, r0	; 63
 2c6:	cd bf       	out	0x3d, r28	; 61
 2c8:	df 91       	pop	r29
 2ca:	cf 91       	pop	r28
 2cc:	1f 91       	pop	r17
 2ce:	0f 91       	pop	r16
 2d0:	ff 90       	pop	r15
 2d2:	ef 90       	pop	r14
 2d4:	08 95       	ret

000002d6 <calc_average_data>:
 2d6:	8f 92       	push	r8
 2d8:	9f 92       	push	r9
 2da:	af 92       	push	r10
 2dc:	bf 92       	push	r11
 2de:	cf 92       	push	r12
 2e0:	df 92       	push	r13
 2e2:	ef 92       	push	r14
 2e4:	ff 92       	push	r15
 2e6:	0f 93       	push	r16
 2e8:	1f 93       	push	r17
 2ea:	cf 93       	push	r28
 2ec:	df 93       	push	r29
 2ee:	0f 2e       	mov	r0, r31
 2f0:	fa e0       	ldi	r31, 0x0A	; 10
 2f2:	ef 2e       	mov	r14, r31
 2f4:	f1 e0       	ldi	r31, 0x01	; 1
 2f6:	ff 2e       	mov	r15, r31
 2f8:	f0 2d       	mov	r31, r0
 2fa:	c9 e8       	ldi	r28, 0x89	; 137
 2fc:	d1 e0       	ldi	r29, 0x01	; 1
 2fe:	0f 2e       	mov	r0, r31
 300:	f9 e2       	ldi	r31, 0x29	; 41
 302:	cf 2e       	mov	r12, r31
 304:	f2 e0       	ldi	r31, 0x02	; 2
 306:	df 2e       	mov	r13, r31
 308:	f0 2d       	mov	r31, r0
 30a:	81 2c       	mov	r8, r1
 30c:	91 2c       	mov	r9, r1
 30e:	54 01       	movw	r10, r8
 310:	00 e0       	ldi	r16, 0x00	; 0
 312:	10 e0       	ldi	r17, 0x00	; 0
 314:	f7 01       	movw	r30, r14
 316:	81 91       	ld	r24, Z+
 318:	91 91       	ld	r25, Z+
 31a:	7f 01       	movw	r14, r30
 31c:	08 0f       	add	r16, r24
 31e:	19 1f       	adc	r17, r25
 320:	29 91       	ld	r18, Y+
 322:	39 91       	ld	r19, Y+
 324:	49 91       	ld	r20, Y+
 326:	59 91       	ld	r21, Y+
 328:	c5 01       	movw	r24, r10
 32a:	b4 01       	movw	r22, r8
 32c:	0e 94 3b 05 	call	0xa76	; 0xa76 <__addsf3>
 330:	4b 01       	movw	r8, r22
 332:	5c 01       	movw	r10, r24
 334:	cc 15       	cp	r28, r12
 336:	dd 05       	cpc	r29, r13
 338:	69 f7       	brne	.-38     	; 0x314 <calc_average_data+0x3e>
 33a:	98 01       	movw	r18, r16
 33c:	32 95       	swap	r19
 33e:	22 95       	swap	r18
 340:	2f 70       	andi	r18, 0x0F	; 15
 342:	23 27       	eor	r18, r19
 344:	3f 70       	andi	r19, 0x0F	; 15
 346:	23 27       	eor	r18, r19
 348:	ae e3       	ldi	r26, 0x3E	; 62
 34a:	ba e0       	ldi	r27, 0x0A	; 10
 34c:	0e 94 93 07 	call	0xf26	; 0xf26 <__umulhisi3>
 350:	80 93 08 01 	sts	0x0108, r24	; 0x800108 <average_licht>
 354:	20 e0       	ldi	r18, 0x00	; 0
 356:	30 e0       	ldi	r19, 0x00	; 0
 358:	40 e2       	ldi	r20, 0x20	; 32
 35a:	52 e4       	ldi	r21, 0x42	; 66
 35c:	c5 01       	movw	r24, r10
 35e:	b4 01       	movw	r22, r8
 360:	0e 94 ac 05 	call	0xb58	; 0xb58 <__divsf3>
 364:	0e 94 1e 06 	call	0xc3c	; 0xc3c <__fixunssfsi>
 368:	60 93 07 01 	sts	0x0107, r22	; 0x800107 <average_temp>
 36c:	df 91       	pop	r29
 36e:	cf 91       	pop	r28
 370:	1f 91       	pop	r17
 372:	0f 91       	pop	r16
 374:	ff 90       	pop	r15
 376:	ef 90       	pop	r14
 378:	df 90       	pop	r13
 37a:	cf 90       	pop	r12
 37c:	bf 90       	pop	r11
 37e:	af 90       	pop	r10
 380:	9f 90       	pop	r9
 382:	8f 90       	pop	r8
 384:	08 95       	ret

00000386 <store_data>:
 386:	cf 93       	push	r28
 388:	c0 91 06 01 	lds	r28, 0x0106	; 0x800106 <list_counter>
 38c:	c8 32       	cpi	r28, 0x28	; 40
 38e:	08 f0       	brcs	.+2      	; 0x392 <store_data+0xc>
 390:	46 c0       	rjmp	.+140    	; 0x41e <__LOCK_REGION_LENGTH__+0x1e>
 392:	80 e0       	ldi	r24, 0x00	; 0
 394:	0e 94 d7 00 	call	0x1ae	; 0x1ae <read>
 398:	ec 2f       	mov	r30, r28
 39a:	f0 e0       	ldi	r31, 0x00	; 0
 39c:	ee 0f       	add	r30, r30
 39e:	ff 1f       	adc	r31, r31
 3a0:	e6 5f       	subi	r30, 0xF6	; 246
 3a2:	fe 4f       	sbci	r31, 0xFE	; 254
 3a4:	91 83       	std	Z+1, r25	; 0x01
 3a6:	80 83       	st	Z, r24
 3a8:	81 e0       	ldi	r24, 0x01	; 1
 3aa:	0e 94 d7 00 	call	0x1ae	; 0x1ae <read>
 3ae:	bc 01       	movw	r22, r24
 3b0:	80 e0       	ldi	r24, 0x00	; 0
 3b2:	90 e0       	ldi	r25, 0x00	; 0
 3b4:	0e 94 4d 06 	call	0xc9a	; 0xc9a <__floatunsisf>
 3b8:	20 e0       	ldi	r18, 0x00	; 0
 3ba:	30 e4       	ldi	r19, 0x40	; 64
 3bc:	4c e9       	ldi	r20, 0x9C	; 156
 3be:	50 e4       	ldi	r21, 0x40	; 64
 3c0:	0e 94 04 07 	call	0xe08	; 0xe08 <__mulsf3>
 3c4:	20 e0       	ldi	r18, 0x00	; 0
 3c6:	30 e8       	ldi	r19, 0x80	; 128
 3c8:	4b e3       	ldi	r20, 0x3B	; 59
 3ca:	54 e4       	ldi	r21, 0x44	; 68
 3cc:	0e 94 3a 05 	call	0xa74	; 0xa74 <__subsf3>
 3d0:	20 e0       	ldi	r18, 0x00	; 0
 3d2:	30 e0       	ldi	r19, 0x00	; 0
 3d4:	40 e2       	ldi	r20, 0x20	; 32
 3d6:	51 e4       	ldi	r21, 0x41	; 65
 3d8:	0e 94 ac 05 	call	0xb58	; 0xb58 <__divsf3>
 3dc:	20 e0       	ldi	r18, 0x00	; 0
 3de:	30 e0       	ldi	r19, 0x00	; 0
 3e0:	48 ec       	ldi	r20, 0xC8	; 200
 3e2:	51 e4       	ldi	r21, 0x41	; 65
 3e4:	0e 94 3b 05 	call	0xa76	; 0xa76 <__addsf3>
 3e8:	60 93 7f 01 	sts	0x017F, r22	; 0x80017f <temp>
 3ec:	70 93 80 01 	sts	0x0180, r23	; 0x800180 <temp+0x1>
 3f0:	80 93 81 01 	sts	0x0181, r24	; 0x800181 <temp+0x2>
 3f4:	90 93 82 01 	sts	0x0182, r25	; 0x800182 <temp+0x3>
 3f8:	20 91 06 01 	lds	r18, 0x0106	; 0x800106 <list_counter>
 3fc:	e2 2f       	mov	r30, r18
 3fe:	f0 e0       	ldi	r31, 0x00	; 0
 400:	ee 0f       	add	r30, r30
 402:	ff 1f       	adc	r31, r31
 404:	ee 0f       	add	r30, r30
 406:	ff 1f       	adc	r31, r31
 408:	e7 57       	subi	r30, 0x77	; 119
 40a:	fe 4f       	sbci	r31, 0xFE	; 254
 40c:	60 83       	st	Z, r22
 40e:	71 83       	std	Z+1, r23	; 0x01
 410:	82 83       	std	Z+2, r24	; 0x02
 412:	93 83       	std	Z+3, r25	; 0x03
 414:	81 e0       	ldi	r24, 0x01	; 1
 416:	82 0f       	add	r24, r18
 418:	80 93 06 01 	sts	0x0106, r24	; 0x800106 <list_counter>
 41c:	04 c0       	rjmp	.+8      	; 0x426 <__LOCK_REGION_LENGTH__+0x26>
 41e:	10 92 06 01 	sts	0x0106, r1	; 0x800106 <list_counter>
 422:	0e 94 6b 01 	call	0x2d6	; 0x2d6 <calc_average_data>
 426:	cf 91       	pop	r28
 428:	08 95       	ret

0000042a <get_settings>:
 42a:	80 91 84 01 	lds	r24, 0x0184	; 0x800184 <max_dist>
 42e:	0e 94 ff 00 	call	0x1fe	; 0x1fe <transmit>
 432:	80 91 09 01 	lds	r24, 0x0109	; 0x800109 <min_dist>
 436:	0e 94 ff 00 	call	0x1fe	; 0x1fe <transmit>
 43a:	80 91 2c 02 	lds	r24, 0x022C	; 0x80022c <toggle_temp>
 43e:	0e 94 ff 00 	call	0x1fe	; 0x1fe <transmit>
 442:	80 91 2e 02 	lds	r24, 0x022E	; 0x80022e <toggle_light>
 446:	0e 94 ff 00 	call	0x1fe	; 0x1fe <transmit>
 44a:	80 91 7e 01 	lds	r24, 0x017E	; 0x80017e <toggle_type>
 44e:	0e 94 ff 00 	call	0x1fe	; 0x1fe <transmit>
 452:	08 95       	ret

00000454 <reset_settings>:
 454:	60 e0       	ldi	r22, 0x00	; 0
 456:	84 e6       	ldi	r24, 0x64	; 100
 458:	90 e0       	ldi	r25, 0x00	; 0
 45a:	0e 94 aa 07 	call	0xf54	; 0xf54 <eeprom_update_byte>
 45e:	0e 94 7a 00 	call	0xf4	; 0xf4 <eeprom_init>
 462:	0e 94 ac 00 	call	0x158	; 0x158 <get_eeprom>
 466:	08 95       	ret

00000468 <set_setting>:
 468:	82 30       	cpi	r24, 0x02	; 2
 46a:	c9 f0       	breq	.+50     	; 0x49e <set_setting+0x36>
 46c:	28 f4       	brcc	.+10     	; 0x478 <set_setting+0x10>
 46e:	88 23       	and	r24, r24
 470:	41 f0       	breq	.+16     	; 0x482 <set_setting+0x1a>
 472:	81 30       	cpi	r24, 0x01	; 1
 474:	69 f0       	breq	.+26     	; 0x490 <set_setting+0x28>
 476:	08 95       	ret
 478:	83 30       	cpi	r24, 0x03	; 3
 47a:	e1 f0       	breq	.+56     	; 0x4b4 <set_setting+0x4c>
 47c:	84 30       	cpi	r24, 0x04	; 4
 47e:	09 f1       	breq	.+66     	; 0x4c2 <set_setting+0x5a>
 480:	08 95       	ret
 482:	60 93 84 01 	sts	0x0184, r22	; 0x800184 <max_dist>
 486:	80 e0       	ldi	r24, 0x00	; 0
 488:	90 e0       	ldi	r25, 0x00	; 0
 48a:	0e 94 aa 07 	call	0xf54	; 0xf54 <eeprom_update_byte>
 48e:	08 95       	ret
 490:	60 93 09 01 	sts	0x0109, r22	; 0x800109 <min_dist>
 494:	81 e0       	ldi	r24, 0x01	; 1
 496:	90 e0       	ldi	r25, 0x00	; 0
 498:	0e 94 aa 07 	call	0xf54	; 0xf54 <eeprom_update_byte>
 49c:	08 95       	ret
 49e:	86 2f       	mov	r24, r22
 4a0:	90 e0       	ldi	r25, 0x00	; 0
 4a2:	90 93 2d 02 	sts	0x022D, r25	; 0x80022d <toggle_temp+0x1>
 4a6:	80 93 2c 02 	sts	0x022C, r24	; 0x80022c <toggle_temp>
 4aa:	82 e0       	ldi	r24, 0x02	; 2
 4ac:	90 e0       	ldi	r25, 0x00	; 0
 4ae:	0e 94 aa 07 	call	0xf54	; 0xf54 <eeprom_update_byte>
 4b2:	08 95       	ret
 4b4:	60 93 2e 02 	sts	0x022E, r22	; 0x80022e <toggle_light>
 4b8:	83 e0       	ldi	r24, 0x03	; 3
 4ba:	90 e0       	ldi	r25, 0x00	; 0
 4bc:	0e 94 aa 07 	call	0xf54	; 0xf54 <eeprom_update_byte>
 4c0:	08 95       	ret
 4c2:	60 93 7e 01 	sts	0x017E, r22	; 0x80017e <toggle_type>
 4c6:	84 e0       	ldi	r24, 0x04	; 4
 4c8:	90 e0       	ldi	r25, 0x00	; 0
 4ca:	0e 94 aa 07 	call	0xf54	; 0xf54 <eeprom_update_byte>
 4ce:	08 95       	ret

000004d0 <__vector_2>:
 4d0:	1f 92       	push	r1
 4d2:	0f 92       	push	r0
 4d4:	0f b6       	in	r0, 0x3f	; 63
 4d6:	0f 92       	push	r0
 4d8:	11 24       	eor	r1, r1
 4da:	2f 93       	push	r18
 4dc:	3f 93       	push	r19
 4de:	4f 93       	push	r20
 4e0:	5f 93       	push	r21
 4e2:	6f 93       	push	r22
 4e4:	7f 93       	push	r23
 4e6:	8f 93       	push	r24
 4e8:	9f 93       	push	r25
 4ea:	af 93       	push	r26
 4ec:	bf 93       	push	r27
 4ee:	ef 93       	push	r30
 4f0:	ff 93       	push	r31
 4f2:	80 91 00 01 	lds	r24, 0x0100	; 0x800100 <_edata>
 4f6:	81 30       	cpi	r24, 0x01	; 1
 4f8:	d1 f5       	brne	.+116    	; 0x56e <__vector_2+0x9e>
 4fa:	80 91 01 01 	lds	r24, 0x0101	; 0x800101 <rising_edge>
 4fe:	81 11       	cpse	r24, r1
 500:	0d c0       	rjmp	.+26     	; 0x51c <__vector_2+0x4c>
 502:	81 e0       	ldi	r24, 0x01	; 1
 504:	80 93 01 01 	sts	0x0101, r24	; 0x800101 <rising_edge>
 508:	16 bc       	out	0x26, r1	; 38
 50a:	10 92 02 01 	sts	0x0102, r1	; 0x800102 <count>
 50e:	10 92 03 01 	sts	0x0103, r1	; 0x800103 <count+0x1>
 512:	10 92 04 01 	sts	0x0104, r1	; 0x800104 <count+0x2>
 516:	10 92 05 01 	sts	0x0105, r1	; 0x800105 <count+0x3>
 51a:	29 c0       	rjmp	.+82     	; 0x56e <__vector_2+0x9e>
 51c:	10 92 01 01 	sts	0x0101, r1	; 0x800101 <rising_edge>
 520:	26 b5       	in	r18, 0x26	; 38
 522:	80 91 02 01 	lds	r24, 0x0102	; 0x800102 <count>
 526:	90 91 03 01 	lds	r25, 0x0103	; 0x800103 <count+0x1>
 52a:	a0 91 04 01 	lds	r26, 0x0104	; 0x800104 <count+0x2>
 52e:	b0 91 05 01 	lds	r27, 0x0105	; 0x800105 <count+0x3>
 532:	ba 2f       	mov	r27, r26
 534:	a9 2f       	mov	r26, r25
 536:	98 2f       	mov	r25, r24
 538:	88 27       	eor	r24, r24
 53a:	bc 01       	movw	r22, r24
 53c:	cd 01       	movw	r24, r26
 53e:	62 0f       	add	r22, r18
 540:	71 1d       	adc	r23, r1
 542:	81 1d       	adc	r24, r1
 544:	91 1d       	adc	r25, r1
 546:	25 ea       	ldi	r18, 0xA5	; 165
 548:	33 e0       	ldi	r19, 0x03	; 3
 54a:	40 e0       	ldi	r20, 0x00	; 0
 54c:	50 e0       	ldi	r21, 0x00	; 0
 54e:	0e 94 71 07 	call	0xee2	; 0xee2 <__udivmodsi4>
 552:	ca 01       	movw	r24, r20
 554:	b9 01       	movw	r22, r18
 556:	0e 94 4d 06 	call	0xc9a	; 0xc9a <__floatunsisf>
 55a:	60 93 85 01 	sts	0x0185, r22	; 0x800185 <dist>
 55e:	70 93 86 01 	sts	0x0186, r23	; 0x800186 <dist+0x1>
 562:	80 93 87 01 	sts	0x0187, r24	; 0x800187 <dist+0x2>
 566:	90 93 88 01 	sts	0x0188, r25	; 0x800188 <dist+0x3>
 56a:	10 92 00 01 	sts	0x0100, r1	; 0x800100 <_edata>
 56e:	ff 91       	pop	r31
 570:	ef 91       	pop	r30
 572:	bf 91       	pop	r27
 574:	af 91       	pop	r26
 576:	9f 91       	pop	r25
 578:	8f 91       	pop	r24
 57a:	7f 91       	pop	r23
 57c:	6f 91       	pop	r22
 57e:	5f 91       	pop	r21
 580:	4f 91       	pop	r20
 582:	3f 91       	pop	r19
 584:	2f 91       	pop	r18
 586:	0f 90       	pop	r0
 588:	0f be       	out	0x3f, r0	; 63
 58a:	0f 90       	pop	r0
 58c:	1f 90       	pop	r1
 58e:	18 95       	reti

00000590 <__vector_16>:
 590:	1f 92       	push	r1
 592:	0f 92       	push	r0
 594:	0f b6       	in	r0, 0x3f	; 63
 596:	0f 92       	push	r0
 598:	11 24       	eor	r1, r1
 59a:	8f 93       	push	r24
 59c:	9f 93       	push	r25
 59e:	af 93       	push	r26
 5a0:	bf 93       	push	r27
 5a2:	80 91 01 01 	lds	r24, 0x0101	; 0x800101 <rising_edge>
 5a6:	81 30       	cpi	r24, 0x01	; 1
 5a8:	99 f4       	brne	.+38     	; 0x5d0 <__vector_16+0x40>
 5aa:	80 91 02 01 	lds	r24, 0x0102	; 0x800102 <count>
 5ae:	90 91 03 01 	lds	r25, 0x0103	; 0x800103 <count+0x1>
 5b2:	a0 91 04 01 	lds	r26, 0x0104	; 0x800104 <count+0x2>
 5b6:	b0 91 05 01 	lds	r27, 0x0105	; 0x800105 <count+0x3>
 5ba:	01 96       	adiw	r24, 0x01	; 1
 5bc:	a1 1d       	adc	r26, r1
 5be:	b1 1d       	adc	r27, r1
 5c0:	80 93 02 01 	sts	0x0102, r24	; 0x800102 <count>
 5c4:	90 93 03 01 	sts	0x0103, r25	; 0x800103 <count+0x1>
 5c8:	a0 93 04 01 	sts	0x0104, r26	; 0x800104 <count+0x2>
 5cc:	b0 93 05 01 	sts	0x0105, r27	; 0x800105 <count+0x3>
 5d0:	bf 91       	pop	r27
 5d2:	af 91       	pop	r26
 5d4:	9f 91       	pop	r25
 5d6:	8f 91       	pop	r24
 5d8:	0f 90       	pop	r0
 5da:	0f be       	out	0x3f, r0	; 63
 5dc:	0f 90       	pop	r0
 5de:	1f 90       	pop	r1
 5e0:	18 95       	reti

000005e2 <SCH_Add_Task>:
 5e2:	0f 93       	push	r16
 5e4:	1f 93       	push	r17
 5e6:	cf 93       	push	r28
 5e8:	df 93       	push	r29
 5ea:	8c 01       	movw	r16, r24
 5ec:	80 91 5a 01 	lds	r24, 0x015A	; 0x80015a <SCH_tasks_G>
 5f0:	90 91 5b 01 	lds	r25, 0x015B	; 0x80015b <SCH_tasks_G+0x1>
 5f4:	89 2b       	or	r24, r25
 5f6:	81 f0       	breq	.+32     	; 0x618 <SCH_Add_Task+0x36>
 5f8:	ea e5       	ldi	r30, 0x5A	; 90
 5fa:	f1 e0       	ldi	r31, 0x01	; 1
 5fc:	21 e0       	ldi	r18, 0x01	; 1
 5fe:	30 e0       	ldi	r19, 0x00	; 0
 600:	82 2f       	mov	r24, r18
 602:	e9 01       	movw	r28, r18
 604:	a7 81       	ldd	r26, Z+7	; 0x07
 606:	b0 85       	ldd	r27, Z+8	; 0x08
 608:	2f 5f       	subi	r18, 0xFF	; 255
 60a:	3f 4f       	sbci	r19, 0xFF	; 255
 60c:	37 96       	adiw	r30, 0x07	; 7
 60e:	ab 2b       	or	r26, r27
 610:	b9 f7       	brne	.-18     	; 0x600 <SCH_Add_Task+0x1e>
 612:	85 30       	cpi	r24, 0x05	; 5
 614:	21 f4       	brne	.+8      	; 0x61e <SCH_Add_Task+0x3c>
 616:	15 c0       	rjmp	.+42     	; 0x642 <SCH_Add_Task+0x60>
 618:	c0 e0       	ldi	r28, 0x00	; 0
 61a:	d0 e0       	ldi	r29, 0x00	; 0
 61c:	80 e0       	ldi	r24, 0x00	; 0
 61e:	fe 01       	movw	r30, r28
 620:	ee 0f       	add	r30, r30
 622:	ff 1f       	adc	r31, r31
 624:	ee 0f       	add	r30, r30
 626:	ff 1f       	adc	r31, r31
 628:	ee 0f       	add	r30, r30
 62a:	ff 1f       	adc	r31, r31
 62c:	ec 1b       	sub	r30, r28
 62e:	fd 0b       	sbc	r31, r29
 630:	e6 5a       	subi	r30, 0xA6	; 166
 632:	fe 4f       	sbci	r31, 0xFE	; 254
 634:	11 83       	std	Z+1, r17	; 0x01
 636:	00 83       	st	Z, r16
 638:	73 83       	std	Z+3, r23	; 0x03
 63a:	62 83       	std	Z+2, r22	; 0x02
 63c:	55 83       	std	Z+5, r21	; 0x05
 63e:	44 83       	std	Z+4, r20	; 0x04
 640:	16 82       	std	Z+6, r1	; 0x06
 642:	df 91       	pop	r29
 644:	cf 91       	pop	r28
 646:	1f 91       	pop	r17
 648:	0f 91       	pop	r16
 64a:	08 95       	ret

0000064c <rollout>:
 64c:	80 91 29 02 	lds	r24, 0x0229	; 0x800229 <roll_out>
 650:	81 11       	cpse	r24, r1
 652:	0f c0       	rjmp	.+30     	; 0x672 <rollout+0x26>
 654:	84 e0       	ldi	r24, 0x04	; 4
 656:	85 b9       	out	0x05, r24	; 5
 658:	10 92 2a 02 	sts	0x022A, r1	; 0x80022a <roll_in>
 65c:	81 e0       	ldi	r24, 0x01	; 1
 65e:	80 93 29 02 	sts	0x0229, r24	; 0x800229 <roll_out>
 662:	42 e3       	ldi	r20, 0x32	; 50
 664:	50 e0       	ldi	r21, 0x00	; 0
 666:	60 e0       	ldi	r22, 0x00	; 0
 668:	70 e0       	ldi	r23, 0x00	; 0
 66a:	8c e4       	ldi	r24, 0x4C	; 76
 66c:	94 e0       	ldi	r25, 0x04	; 4
 66e:	0e 94 f1 02 	call	0x5e2	; 0x5e2 <SCH_Add_Task>
 672:	08 95       	ret

00000674 <rollin>:
 674:	80 91 2a 02 	lds	r24, 0x022A	; 0x80022a <roll_in>
 678:	81 11       	cpse	r24, r1
 67a:	0f c0       	rjmp	.+30     	; 0x69a <rollin+0x26>
 67c:	82 e0       	ldi	r24, 0x02	; 2
 67e:	85 b9       	out	0x05, r24	; 5
 680:	10 92 29 02 	sts	0x0229, r1	; 0x800229 <roll_out>
 684:	81 e0       	ldi	r24, 0x01	; 1
 686:	80 93 2a 02 	sts	0x022A, r24	; 0x80022a <roll_in>
 68a:	42 e3       	ldi	r20, 0x32	; 50
 68c:	50 e0       	ldi	r21, 0x00	; 0
 68e:	60 e0       	ldi	r22, 0x00	; 0
 690:	70 e0       	ldi	r23, 0x00	; 0
 692:	8c e4       	ldi	r24, 0x4C	; 76
 694:	94 e0       	ldi	r25, 0x04	; 4
 696:	0e 94 f1 02 	call	0x5e2	; 0x5e2 <SCH_Add_Task>
 69a:	08 95       	ret

0000069c <auto_modus>:
 69c:	80 91 7e 01 	lds	r24, 0x017E	; 0x80017e <toggle_type>
 6a0:	88 23       	and	r24, r24
 6a2:	09 f4       	brne	.+2      	; 0x6a6 <auto_modus+0xa>
 6a4:	9f c0       	rjmp	.+318    	; 0x7e4 <auto_modus+0x148>
 6a6:	81 30       	cpi	r24, 0x01	; 1
 6a8:	19 f5       	brne	.+70     	; 0x6f0 <auto_modus+0x54>
 6aa:	80 91 7d 01 	lds	r24, 0x017D	; 0x80017d <roll_status>
 6ae:	81 11       	cpse	r24, r1
 6b0:	0e c0       	rjmp	.+28     	; 0x6ce <auto_modus+0x32>
 6b2:	80 91 07 01 	lds	r24, 0x0107	; 0x800107 <average_temp>
 6b6:	90 e0       	ldi	r25, 0x00	; 0
 6b8:	20 91 2c 02 	lds	r18, 0x022C	; 0x80022c <toggle_temp>
 6bc:	30 91 2d 02 	lds	r19, 0x022D	; 0x80022d <toggle_temp+0x1>
 6c0:	28 17       	cp	r18, r24
 6c2:	39 07       	cpc	r19, r25
 6c4:	0c f0       	brlt	.+2      	; 0x6c8 <auto_modus+0x2c>
 6c6:	8e c0       	rjmp	.+284    	; 0x7e4 <auto_modus+0x148>
 6c8:	0e 94 26 03 	call	0x64c	; 0x64c <rollout>
 6cc:	08 95       	ret
 6ce:	81 30       	cpi	r24, 0x01	; 1
 6d0:	09 f0       	breq	.+2      	; 0x6d4 <auto_modus+0x38>
 6d2:	88 c0       	rjmp	.+272    	; 0x7e4 <auto_modus+0x148>
 6d4:	80 91 07 01 	lds	r24, 0x0107	; 0x800107 <average_temp>
 6d8:	90 e0       	ldi	r25, 0x00	; 0
 6da:	20 91 2c 02 	lds	r18, 0x022C	; 0x80022c <toggle_temp>
 6de:	30 91 2d 02 	lds	r19, 0x022D	; 0x80022d <toggle_temp+0x1>
 6e2:	82 17       	cp	r24, r18
 6e4:	93 07       	cpc	r25, r19
 6e6:	0c f0       	brlt	.+2      	; 0x6ea <auto_modus+0x4e>
 6e8:	7d c0       	rjmp	.+250    	; 0x7e4 <auto_modus+0x148>
 6ea:	0e 94 3a 03 	call	0x674	; 0x674 <rollin>
 6ee:	08 95       	ret
 6f0:	82 30       	cpi	r24, 0x02	; 2
 6f2:	d9 f4       	brne	.+54     	; 0x72a <auto_modus+0x8e>
 6f4:	80 91 7d 01 	lds	r24, 0x017D	; 0x80017d <roll_status>
 6f8:	81 11       	cpse	r24, r1
 6fa:	0a c0       	rjmp	.+20     	; 0x710 <auto_modus+0x74>
 6fc:	90 91 08 01 	lds	r25, 0x0108	; 0x800108 <average_licht>
 700:	80 91 2e 02 	lds	r24, 0x022E	; 0x80022e <toggle_light>
 704:	89 17       	cp	r24, r25
 706:	08 f0       	brcs	.+2      	; 0x70a <auto_modus+0x6e>
 708:	6d c0       	rjmp	.+218    	; 0x7e4 <auto_modus+0x148>
 70a:	0e 94 26 03 	call	0x64c	; 0x64c <rollout>
 70e:	08 95       	ret
 710:	81 30       	cpi	r24, 0x01	; 1
 712:	09 f0       	breq	.+2      	; 0x716 <auto_modus+0x7a>
 714:	67 c0       	rjmp	.+206    	; 0x7e4 <auto_modus+0x148>
 716:	90 91 08 01 	lds	r25, 0x0108	; 0x800108 <average_licht>
 71a:	80 91 2e 02 	lds	r24, 0x022E	; 0x80022e <toggle_light>
 71e:	98 17       	cp	r25, r24
 720:	08 f0       	brcs	.+2      	; 0x724 <auto_modus+0x88>
 722:	60 c0       	rjmp	.+192    	; 0x7e4 <auto_modus+0x148>
 724:	0e 94 3a 03 	call	0x674	; 0x674 <rollin>
 728:	08 95       	ret
 72a:	83 30       	cpi	r24, 0x03	; 3
 72c:	71 f5       	brne	.+92     	; 0x78a <auto_modus+0xee>
 72e:	80 91 7d 01 	lds	r24, 0x017D	; 0x80017d <roll_status>
 732:	81 11       	cpse	r24, r1
 734:	14 c0       	rjmp	.+40     	; 0x75e <auto_modus+0xc2>
 736:	90 91 08 01 	lds	r25, 0x0108	; 0x800108 <average_licht>
 73a:	80 91 2e 02 	lds	r24, 0x022E	; 0x80022e <toggle_light>
 73e:	89 17       	cp	r24, r25
 740:	58 f0       	brcs	.+22     	; 0x758 <auto_modus+0xbc>
 742:	80 91 07 01 	lds	r24, 0x0107	; 0x800107 <average_temp>
 746:	90 e0       	ldi	r25, 0x00	; 0
 748:	20 91 2c 02 	lds	r18, 0x022C	; 0x80022c <toggle_temp>
 74c:	30 91 2d 02 	lds	r19, 0x022D	; 0x80022d <toggle_temp+0x1>
 750:	28 17       	cp	r18, r24
 752:	39 07       	cpc	r19, r25
 754:	0c f0       	brlt	.+2      	; 0x758 <auto_modus+0xbc>
 756:	46 c0       	rjmp	.+140    	; 0x7e4 <auto_modus+0x148>
 758:	0e 94 26 03 	call	0x64c	; 0x64c <rollout>
 75c:	08 95       	ret
 75e:	81 30       	cpi	r24, 0x01	; 1
 760:	09 f0       	breq	.+2      	; 0x764 <auto_modus+0xc8>
 762:	40 c0       	rjmp	.+128    	; 0x7e4 <auto_modus+0x148>
 764:	90 91 08 01 	lds	r25, 0x0108	; 0x800108 <average_licht>
 768:	80 91 2e 02 	lds	r24, 0x022E	; 0x80022e <toggle_light>
 76c:	98 17       	cp	r25, r24
 76e:	d0 f5       	brcc	.+116    	; 0x7e4 <auto_modus+0x148>
 770:	80 91 07 01 	lds	r24, 0x0107	; 0x800107 <average_temp>
 774:	90 e0       	ldi	r25, 0x00	; 0
 776:	20 91 2c 02 	lds	r18, 0x022C	; 0x80022c <toggle_temp>
 77a:	30 91 2d 02 	lds	r19, 0x022D	; 0x80022d <toggle_temp+0x1>
 77e:	82 17       	cp	r24, r18
 780:	93 07       	cpc	r25, r19
 782:	84 f5       	brge	.+96     	; 0x7e4 <auto_modus+0x148>
 784:	0e 94 3a 03 	call	0x674	; 0x674 <rollin>
 788:	08 95       	ret
 78a:	84 30       	cpi	r24, 0x04	; 4
 78c:	59 f5       	brne	.+86     	; 0x7e4 <auto_modus+0x148>
 78e:	80 91 7d 01 	lds	r24, 0x017D	; 0x80017d <roll_status>
 792:	81 11       	cpse	r24, r1
 794:	13 c0       	rjmp	.+38     	; 0x7bc <auto_modus+0x120>
 796:	90 91 08 01 	lds	r25, 0x0108	; 0x800108 <average_licht>
 79a:	80 91 2e 02 	lds	r24, 0x022E	; 0x80022e <toggle_light>
 79e:	89 17       	cp	r24, r25
 7a0:	08 f5       	brcc	.+66     	; 0x7e4 <auto_modus+0x148>
 7a2:	80 91 07 01 	lds	r24, 0x0107	; 0x800107 <average_temp>
 7a6:	90 e0       	ldi	r25, 0x00	; 0
 7a8:	20 91 2c 02 	lds	r18, 0x022C	; 0x80022c <toggle_temp>
 7ac:	30 91 2d 02 	lds	r19, 0x022D	; 0x80022d <toggle_temp+0x1>
 7b0:	28 17       	cp	r18, r24
 7b2:	39 07       	cpc	r19, r25
 7b4:	bc f4       	brge	.+46     	; 0x7e4 <auto_modus+0x148>
 7b6:	0e 94 26 03 	call	0x64c	; 0x64c <rollout>
 7ba:	08 95       	ret
 7bc:	81 30       	cpi	r24, 0x01	; 1
 7be:	91 f4       	brne	.+36     	; 0x7e4 <auto_modus+0x148>
 7c0:	90 91 08 01 	lds	r25, 0x0108	; 0x800108 <average_licht>
 7c4:	80 91 2e 02 	lds	r24, 0x022E	; 0x80022e <toggle_light>
 7c8:	98 17       	cp	r25, r24
 7ca:	50 f0       	brcs	.+20     	; 0x7e0 <auto_modus+0x144>
 7cc:	80 91 07 01 	lds	r24, 0x0107	; 0x800107 <average_temp>
 7d0:	90 e0       	ldi	r25, 0x00	; 0
 7d2:	20 91 2c 02 	lds	r18, 0x022C	; 0x80022c <toggle_temp>
 7d6:	30 91 2d 02 	lds	r19, 0x022D	; 0x80022d <toggle_temp+0x1>
 7da:	82 17       	cp	r24, r18
 7dc:	93 07       	cpc	r25, r19
 7de:	14 f4       	brge	.+4      	; 0x7e4 <auto_modus+0x148>
 7e0:	0e 94 3a 03 	call	0x674	; 0x674 <rollin>
 7e4:	08 95       	ret

000007e6 <commando>:
 7e6:	80 91 c0 00 	lds	r24, 0x00C0	; 0x8000c0 <__TEXT_REGION_LENGTH__+0x7e00c0>
 7ea:	88 23       	and	r24, r24
 7ec:	0c f0       	brlt	.+2      	; 0x7f0 <commando+0xa>
 7ee:	43 c0       	rjmp	.+134    	; 0x876 <commando+0x90>
 7f0:	80 91 c6 00 	lds	r24, 0x00C6	; 0x8000c6 <__TEXT_REGION_LENGTH__+0x7e00c6>
 7f4:	89 3c       	cpi	r24, 0xC9	; 201
 7f6:	e9 f1       	breq	.+122    	; 0x872 <commando+0x8c>
 7f8:	38 f4       	brcc	.+14     	; 0x808 <commando+0x22>
 7fa:	82 30       	cpi	r24, 0x02	; 2
 7fc:	09 f1       	breq	.+66     	; 0x840 <commando+0x5a>
 7fe:	88 3c       	cpi	r24, 0xC8	; 200
 800:	21 f1       	breq	.+72     	; 0x84a <commando+0x64>
 802:	81 30       	cpi	r24, 0x01	; 1
 804:	c1 f5       	brne	.+112    	; 0x876 <commando+0x90>
 806:	17 c0       	rjmp	.+46     	; 0x836 <commando+0x50>
 808:	82 3e       	cpi	r24, 0xE2	; 226
 80a:	61 f0       	breq	.+24     	; 0x824 <commando+0x3e>
 80c:	18 f4       	brcc	.+6      	; 0x814 <commando+0x2e>
 80e:	81 3e       	cpi	r24, 0xE1	; 225
 810:	31 f0       	breq	.+12     	; 0x81e <commando+0x38>
 812:	08 95       	ret
 814:	83 3e       	cpi	r24, 0xE3	; 227
 816:	49 f0       	breq	.+18     	; 0x82a <commando+0x44>
 818:	84 3e       	cpi	r24, 0xE4	; 228
 81a:	51 f0       	breq	.+20     	; 0x830 <commando+0x4a>
 81c:	08 95       	ret
 81e:	0e 94 07 01 	call	0x20e	; 0x20e <send_data>
 822:	08 95       	ret
 824:	0e 94 15 02 	call	0x42a	; 0x42a <get_settings>
 828:	08 95       	ret
 82a:	0e 94 27 01 	call	0x24e	; 0x24e <send_info>
 82e:	08 95       	ret
 830:	0e 94 2a 02 	call	0x454	; 0x454 <reset_settings>
 834:	08 95       	ret
 836:	10 92 7e 01 	sts	0x017E, r1	; 0x80017e <toggle_type>
 83a:	0e 94 26 03 	call	0x64c	; 0x64c <rollout>
 83e:	08 95       	ret
 840:	10 92 7e 01 	sts	0x017E, r1	; 0x80017e <toggle_type>
 844:	0e 94 3a 03 	call	0x674	; 0x674 <rollin>
 848:	08 95       	ret
 84a:	e0 ec       	ldi	r30, 0xC0	; 192
 84c:	f0 e0       	ldi	r31, 0x00	; 0
 84e:	80 81       	ld	r24, Z
 850:	88 23       	and	r24, r24
 852:	ec f7       	brge	.-6      	; 0x84e <commando+0x68>
 854:	80 91 c6 00 	lds	r24, 0x00C6	; 0x8000c6 <__TEXT_REGION_LENGTH__+0x7e00c6>
 858:	00 00       	nop
 85a:	e0 ec       	ldi	r30, 0xC0	; 192
 85c:	f0 e0       	ldi	r31, 0x00	; 0
 85e:	90 81       	ld	r25, Z
 860:	99 23       	and	r25, r25
 862:	ec f7       	brge	.-6      	; 0x85e <commando+0x78>
 864:	60 91 c6 00 	lds	r22, 0x00C6	; 0x8000c6 <__TEXT_REGION_LENGTH__+0x7e00c6>
 868:	70 e0       	ldi	r23, 0x00	; 0
 86a:	90 e0       	ldi	r25, 0x00	; 0
 86c:	0e 94 34 02 	call	0x468	; 0x468 <set_setting>
 870:	08 95       	ret
 872:	0e 94 ec 00 	call	0x1d8	; 0x1d8 <is_connected>
 876:	08 95       	ret

00000878 <SCH_Delete_Task>:
 878:	27 e0       	ldi	r18, 0x07	; 7
 87a:	82 9f       	mul	r24, r18
 87c:	c0 01       	movw	r24, r0
 87e:	11 24       	eor	r1, r1
 880:	fc 01       	movw	r30, r24
 882:	e6 5a       	subi	r30, 0xA6	; 166
 884:	fe 4f       	sbci	r31, 0xFE	; 254
 886:	11 82       	std	Z+1, r1	; 0x01
 888:	10 82       	st	Z, r1
 88a:	13 82       	std	Z+3, r1	; 0x03
 88c:	12 82       	std	Z+2, r1	; 0x02
 88e:	15 82       	std	Z+5, r1	; 0x05
 890:	14 82       	std	Z+4, r1	; 0x04
 892:	16 82       	std	Z+6, r1	; 0x06
 894:	80 e0       	ldi	r24, 0x00	; 0
 896:	08 95       	ret

00000898 <roll>:
 898:	80 91 29 02 	lds	r24, 0x0229	; 0x800229 <roll_out>
 89c:	81 30       	cpi	r24, 0x01	; 1
 89e:	29 f5       	brne	.+74     	; 0x8ea <roll+0x52>
 8a0:	95 b1       	in	r25, 0x05	; 5
 8a2:	89 27       	eor	r24, r25
 8a4:	85 b9       	out	0x05, r24	; 5
 8a6:	60 91 84 01 	lds	r22, 0x0184	; 0x800184 <max_dist>
 8aa:	70 e0       	ldi	r23, 0x00	; 0
 8ac:	80 e0       	ldi	r24, 0x00	; 0
 8ae:	90 e0       	ldi	r25, 0x00	; 0
 8b0:	0e 94 4f 06 	call	0xc9e	; 0xc9e <__floatsisf>
 8b4:	20 91 85 01 	lds	r18, 0x0185	; 0x800185 <dist>
 8b8:	30 91 86 01 	lds	r19, 0x0186	; 0x800186 <dist+0x1>
 8bc:	40 91 87 01 	lds	r20, 0x0187	; 0x800187 <dist+0x2>
 8c0:	50 91 88 01 	lds	r21, 0x0188	; 0x800188 <dist+0x3>
 8c4:	0e 94 a7 05 	call	0xb4e	; 0xb4e <__cmpsf2>
 8c8:	18 16       	cp	r1, r24
 8ca:	7c f0       	brlt	.+30     	; 0x8ea <roll+0x52>
 8cc:	10 92 29 02 	sts	0x0229, r1	; 0x800229 <roll_out>
 8d0:	84 e0       	ldi	r24, 0x04	; 4
 8d2:	85 b9       	out	0x05, r24	; 5
 8d4:	61 e0       	ldi	r22, 0x01	; 1
 8d6:	85 e6       	ldi	r24, 0x65	; 101
 8d8:	90 e0       	ldi	r25, 0x00	; 0
 8da:	0e 94 aa 07 	call	0xf54	; 0xf54 <eeprom_update_byte>
 8de:	81 e0       	ldi	r24, 0x01	; 1
 8e0:	80 93 7d 01 	sts	0x017D, r24	; 0x80017d <roll_status>
 8e4:	82 e2       	ldi	r24, 0x22	; 34
 8e6:	0e 94 3c 04 	call	0x878	; 0x878 <SCH_Delete_Task>
 8ea:	80 91 2a 02 	lds	r24, 0x022A	; 0x80022a <roll_in>
 8ee:	81 30       	cpi	r24, 0x01	; 1
 8f0:	21 f5       	brne	.+72     	; 0x93a <__stack+0x3b>
 8f2:	95 b1       	in	r25, 0x05	; 5
 8f4:	89 27       	eor	r24, r25
 8f6:	85 b9       	out	0x05, r24	; 5
 8f8:	60 91 09 01 	lds	r22, 0x0109	; 0x800109 <min_dist>
 8fc:	70 e0       	ldi	r23, 0x00	; 0
 8fe:	80 e0       	ldi	r24, 0x00	; 0
 900:	90 e0       	ldi	r25, 0x00	; 0
 902:	0e 94 4f 06 	call	0xc9e	; 0xc9e <__floatsisf>
 906:	20 91 85 01 	lds	r18, 0x0185	; 0x800185 <dist>
 90a:	30 91 86 01 	lds	r19, 0x0186	; 0x800186 <dist+0x1>
 90e:	40 91 87 01 	lds	r20, 0x0187	; 0x800187 <dist+0x2>
 912:	50 91 88 01 	lds	r21, 0x0188	; 0x800188 <dist+0x3>
 916:	0e 94 ff 06 	call	0xdfe	; 0xdfe <__gesf2>
 91a:	88 23       	and	r24, r24
 91c:	74 f0       	brlt	.+28     	; 0x93a <__stack+0x3b>
 91e:	10 92 2a 02 	sts	0x022A, r1	; 0x80022a <roll_in>
 922:	60 e0       	ldi	r22, 0x00	; 0
 924:	85 e6       	ldi	r24, 0x65	; 101
 926:	90 e0       	ldi	r25, 0x00	; 0
 928:	0e 94 aa 07 	call	0xf54	; 0xf54 <eeprom_update_byte>
 92c:	10 92 7d 01 	sts	0x017D, r1	; 0x80017d <roll_status>
 930:	82 e0       	ldi	r24, 0x02	; 2
 932:	85 b9       	out	0x05, r24	; 5
 934:	82 e2       	ldi	r24, 0x22	; 34
 936:	0e 94 3c 04 	call	0x878	; 0x878 <SCH_Delete_Task>
 93a:	08 95       	ret

0000093c <SCH_Dispatch_Tasks>:
 93c:	ef 92       	push	r14
 93e:	ff 92       	push	r15
 940:	1f 93       	push	r17
 942:	cf 93       	push	r28
 944:	df 93       	push	r29
 946:	ca e5       	ldi	r28, 0x5A	; 90
 948:	d1 e0       	ldi	r29, 0x01	; 1
 94a:	10 e0       	ldi	r17, 0x00	; 0
 94c:	8e 81       	ldd	r24, Y+6	; 0x06
 94e:	88 23       	and	r24, r24
 950:	79 f0       	breq	.+30     	; 0x970 <SCH_Dispatch_Tasks+0x34>
 952:	e8 81       	ld	r30, Y
 954:	f9 81       	ldd	r31, Y+1	; 0x01
 956:	30 97       	sbiw	r30, 0x00	; 0
 958:	59 f0       	breq	.+22     	; 0x970 <SCH_Dispatch_Tasks+0x34>
 95a:	09 95       	icall
 95c:	8e 81       	ldd	r24, Y+6	; 0x06
 95e:	81 50       	subi	r24, 0x01	; 1
 960:	8e 83       	std	Y+6, r24	; 0x06
 962:	8c 81       	ldd	r24, Y+4	; 0x04
 964:	9d 81       	ldd	r25, Y+5	; 0x05
 966:	89 2b       	or	r24, r25
 968:	19 f4       	brne	.+6      	; 0x970 <SCH_Dispatch_Tasks+0x34>
 96a:	81 2f       	mov	r24, r17
 96c:	0e 94 3c 04 	call	0x878	; 0x878 <SCH_Delete_Task>
 970:	1f 5f       	subi	r17, 0xFF	; 255
 972:	27 96       	adiw	r28, 0x07	; 7
 974:	15 30       	cpi	r17, 0x05	; 5
 976:	51 f7       	brne	.-44     	; 0x94c <SCH_Dispatch_Tasks+0x10>
 978:	df 91       	pop	r29
 97a:	cf 91       	pop	r28
 97c:	1f 91       	pop	r17
 97e:	ff 90       	pop	r15
 980:	ef 90       	pop	r14
 982:	08 95       	ret

00000984 <SCH_Init_T1>:
 984:	cf 93       	push	r28
 986:	c0 e0       	ldi	r28, 0x00	; 0
 988:	8c 2f       	mov	r24, r28
 98a:	0e 94 3c 04 	call	0x878	; 0x878 <SCH_Delete_Task>
 98e:	cf 5f       	subi	r28, 0xFF	; 255
 990:	c5 30       	cpi	r28, 0x05	; 5
 992:	d1 f7       	brne	.-12     	; 0x988 <SCH_Init_T1+0x4>
 994:	81 e7       	ldi	r24, 0x71	; 113
 996:	92 e0       	ldi	r25, 0x02	; 2
 998:	90 93 89 00 	sts	0x0089, r25	; 0x800089 <__TEXT_REGION_LENGTH__+0x7e0089>
 99c:	80 93 88 00 	sts	0x0088, r24	; 0x800088 <__TEXT_REGION_LENGTH__+0x7e0088>
 9a0:	8c e0       	ldi	r24, 0x0C	; 12
 9a2:	80 93 81 00 	sts	0x0081, r24	; 0x800081 <__TEXT_REGION_LENGTH__+0x7e0081>
 9a6:	82 e0       	ldi	r24, 0x02	; 2
 9a8:	80 93 6f 00 	sts	0x006F, r24	; 0x80006f <__TEXT_REGION_LENGTH__+0x7e006f>
 9ac:	cf 91       	pop	r28
 9ae:	08 95       	ret

000009b0 <__vector_11>:
 9b0:	1f 92       	push	r1
 9b2:	0f 92       	push	r0
 9b4:	0f b6       	in	r0, 0x3f	; 63
 9b6:	0f 92       	push	r0
 9b8:	11 24       	eor	r1, r1
 9ba:	2f 93       	push	r18
 9bc:	3f 93       	push	r19
 9be:	8f 93       	push	r24
 9c0:	9f 93       	push	r25
 9c2:	af 93       	push	r26
 9c4:	bf 93       	push	r27
 9c6:	ef 93       	push	r30
 9c8:	ff 93       	push	r31
 9ca:	ea e5       	ldi	r30, 0x5A	; 90
 9cc:	f1 e0       	ldi	r31, 0x01	; 1
 9ce:	2d e7       	ldi	r18, 0x7D	; 125
 9d0:	31 e0       	ldi	r19, 0x01	; 1
 9d2:	80 81       	ld	r24, Z
 9d4:	91 81       	ldd	r25, Z+1	; 0x01
 9d6:	89 2b       	or	r24, r25
 9d8:	91 f0       	breq	.+36     	; 0x9fe <__vector_11+0x4e>
 9da:	82 81       	ldd	r24, Z+2	; 0x02
 9dc:	93 81       	ldd	r25, Z+3	; 0x03
 9de:	00 97       	sbiw	r24, 0x00	; 0
 9e0:	59 f4       	brne	.+22     	; 0x9f8 <__vector_11+0x48>
 9e2:	86 81       	ldd	r24, Z+6	; 0x06
 9e4:	8f 5f       	subi	r24, 0xFF	; 255
 9e6:	86 83       	std	Z+6, r24	; 0x06
 9e8:	84 81       	ldd	r24, Z+4	; 0x04
 9ea:	95 81       	ldd	r25, Z+5	; 0x05
 9ec:	00 97       	sbiw	r24, 0x00	; 0
 9ee:	39 f0       	breq	.+14     	; 0x9fe <__vector_11+0x4e>
 9f0:	01 97       	sbiw	r24, 0x01	; 1
 9f2:	93 83       	std	Z+3, r25	; 0x03
 9f4:	82 83       	std	Z+2, r24	; 0x02
 9f6:	03 c0       	rjmp	.+6      	; 0x9fe <__vector_11+0x4e>
 9f8:	01 97       	sbiw	r24, 0x01	; 1
 9fa:	93 83       	std	Z+3, r25	; 0x03
 9fc:	82 83       	std	Z+2, r24	; 0x02
 9fe:	37 96       	adiw	r30, 0x07	; 7
 a00:	e2 17       	cp	r30, r18
 a02:	f3 07       	cpc	r31, r19
 a04:	31 f7       	brne	.-52     	; 0x9d2 <__vector_11+0x22>
 a06:	ff 91       	pop	r31
 a08:	ef 91       	pop	r30
 a0a:	bf 91       	pop	r27
 a0c:	af 91       	pop	r26
 a0e:	9f 91       	pop	r25
 a10:	8f 91       	pop	r24
 a12:	3f 91       	pop	r19
 a14:	2f 91       	pop	r18
 a16:	0f 90       	pop	r0
 a18:	0f be       	out	0x3f, r0	; 63
 a1a:	0f 90       	pop	r0
 a1c:	1f 90       	pop	r1
 a1e:	18 95       	reti

00000a20 <main>:
}

int main(){	
	init();
 a20:	0e 94 9f 00 	call	0x13e	; 0x13e <init>
	SCH_Init_T1();
 a24:	0e 94 c2 04 	call	0x984	; 0x984 <SCH_Init_T1>
	get_eeprom();
 a28:	0e 94 ac 00 	call	0x158	; 0x158 <get_eeprom>
	
	SCH_Add_Task(commando, 0, 1);
 a2c:	41 e0       	ldi	r20, 0x01	; 1
 a2e:	50 e0       	ldi	r21, 0x00	; 0
 a30:	60 e0       	ldi	r22, 0x00	; 0
 a32:	70 e0       	ldi	r23, 0x00	; 0
 a34:	83 ef       	ldi	r24, 0xF3	; 243
 a36:	93 e0       	ldi	r25, 0x03	; 3
 a38:	0e 94 f1 02 	call	0x5e2	; 0x5e2 <SCH_Add_Task>
	//SCH_Add_Task(debug_led, 0, 50);
	SCH_Add_Task(store_data, 0, 100);
 a3c:	44 e6       	ldi	r20, 0x64	; 100
 a3e:	50 e0       	ldi	r21, 0x00	; 0
 a40:	60 e0       	ldi	r22, 0x00	; 0
 a42:	70 e0       	ldi	r23, 0x00	; 0
 a44:	83 ec       	ldi	r24, 0xC3	; 195
 a46:	91 e0       	ldi	r25, 0x01	; 1
 a48:	0e 94 f1 02 	call	0x5e2	; 0x5e2 <SCH_Add_Task>
	SCH_Add_Task(get_distance, 0, 1);
 a4c:	41 e0       	ldi	r20, 0x01	; 1
 a4e:	50 e0       	ldi	r21, 0x00	; 0
 a50:	60 e0       	ldi	r22, 0x00	; 0
 a52:	70 e0       	ldi	r23, 0x00	; 0
 a54:	88 e4       	ldi	r24, 0x48	; 72
 a56:	90 e0       	ldi	r25, 0x00	; 0
 a58:	0e 94 f1 02 	call	0x5e2	; 0x5e2 <SCH_Add_Task>
	SCH_Add_Task(auto_modus, 6000, 1000); // 1 minuut delay eerste average is altijd 0, dus gaat van tweede average af. dan elke 10 seconden kijken of de waardes de rolluik kunnen bedienemn
 a5c:	48 ee       	ldi	r20, 0xE8	; 232
 a5e:	53 e0       	ldi	r21, 0x03	; 3
 a60:	60 e7       	ldi	r22, 0x70	; 112
 a62:	77 e1       	ldi	r23, 0x17	; 23
 a64:	8e e4       	ldi	r24, 0x4E	; 78
 a66:	93 e0       	ldi	r25, 0x03	; 3
 a68:	0e 94 f1 02 	call	0x5e2	; 0x5e2 <SCH_Add_Task>

  NOTE: ONLY THE SCHEDULER INTERRUPT SHOULD BE ENABLED!!! 
-*------------------------------------------------------------------*/

void SCH_Start(void){
	sei();
 a6c:	78 94       	sei
	SCH_Add_Task(auto_modus, 6000, 1000); // 1 minuut delay eerste average is altijd 0, dus gaat van tweede average af. dan elke 10 seconden kijken of de waardes de rolluik kunnen bedienemn

	SCH_Start();
	
	while (1){
		SCH_Dispatch_Tasks();
 a6e:	0e 94 9e 04 	call	0x93c	; 0x93c <SCH_Dispatch_Tasks>
 a72:	fd cf       	rjmp	.-6      	; 0xa6e <main+0x4e>

00000a74 <__subsf3>:
 a74:	50 58       	subi	r21, 0x80	; 128

00000a76 <__addsf3>:
 a76:	bb 27       	eor	r27, r27
 a78:	aa 27       	eor	r26, r26
 a7a:	0e 94 52 05 	call	0xaa4	; 0xaa4 <__addsf3x>
 a7e:	0c 94 c5 06 	jmp	0xd8a	; 0xd8a <__fp_round>
 a82:	0e 94 b7 06 	call	0xd6e	; 0xd6e <__fp_pscA>
 a86:	38 f0       	brcs	.+14     	; 0xa96 <__addsf3+0x20>
 a88:	0e 94 be 06 	call	0xd7c	; 0xd7c <__fp_pscB>
 a8c:	20 f0       	brcs	.+8      	; 0xa96 <__addsf3+0x20>
 a8e:	39 f4       	brne	.+14     	; 0xa9e <__addsf3+0x28>
 a90:	9f 3f       	cpi	r25, 0xFF	; 255
 a92:	19 f4       	brne	.+6      	; 0xa9a <__addsf3+0x24>
 a94:	26 f4       	brtc	.+8      	; 0xa9e <__addsf3+0x28>
 a96:	0c 94 b4 06 	jmp	0xd68	; 0xd68 <__fp_nan>
 a9a:	0e f4       	brtc	.+2      	; 0xa9e <__addsf3+0x28>
 a9c:	e0 95       	com	r30
 a9e:	e7 fb       	bst	r30, 7
 aa0:	0c 94 ae 06 	jmp	0xd5c	; 0xd5c <__fp_inf>

00000aa4 <__addsf3x>:
 aa4:	e9 2f       	mov	r30, r25
 aa6:	0e 94 d6 06 	call	0xdac	; 0xdac <__fp_split3>
 aaa:	58 f3       	brcs	.-42     	; 0xa82 <__addsf3+0xc>
 aac:	ba 17       	cp	r27, r26
 aae:	62 07       	cpc	r22, r18
 ab0:	73 07       	cpc	r23, r19
 ab2:	84 07       	cpc	r24, r20
 ab4:	95 07       	cpc	r25, r21
 ab6:	20 f0       	brcs	.+8      	; 0xac0 <__addsf3x+0x1c>
 ab8:	79 f4       	brne	.+30     	; 0xad8 <__addsf3x+0x34>
 aba:	a6 f5       	brtc	.+104    	; 0xb24 <__addsf3x+0x80>
 abc:	0c 94 f8 06 	jmp	0xdf0	; 0xdf0 <__fp_zero>
 ac0:	0e f4       	brtc	.+2      	; 0xac4 <__addsf3x+0x20>
 ac2:	e0 95       	com	r30
 ac4:	0b 2e       	mov	r0, r27
 ac6:	ba 2f       	mov	r27, r26
 ac8:	a0 2d       	mov	r26, r0
 aca:	0b 01       	movw	r0, r22
 acc:	b9 01       	movw	r22, r18
 ace:	90 01       	movw	r18, r0
 ad0:	0c 01       	movw	r0, r24
 ad2:	ca 01       	movw	r24, r20
 ad4:	a0 01       	movw	r20, r0
 ad6:	11 24       	eor	r1, r1
 ad8:	ff 27       	eor	r31, r31
 ada:	59 1b       	sub	r21, r25
 adc:	99 f0       	breq	.+38     	; 0xb04 <__addsf3x+0x60>
 ade:	59 3f       	cpi	r21, 0xF9	; 249
 ae0:	50 f4       	brcc	.+20     	; 0xaf6 <__addsf3x+0x52>
 ae2:	50 3e       	cpi	r21, 0xE0	; 224
 ae4:	68 f1       	brcs	.+90     	; 0xb40 <__addsf3x+0x9c>
 ae6:	1a 16       	cp	r1, r26
 ae8:	f0 40       	sbci	r31, 0x00	; 0
 aea:	a2 2f       	mov	r26, r18
 aec:	23 2f       	mov	r18, r19
 aee:	34 2f       	mov	r19, r20
 af0:	44 27       	eor	r20, r20
 af2:	58 5f       	subi	r21, 0xF8	; 248
 af4:	f3 cf       	rjmp	.-26     	; 0xadc <__addsf3x+0x38>
 af6:	46 95       	lsr	r20
 af8:	37 95       	ror	r19
 afa:	27 95       	ror	r18
 afc:	a7 95       	ror	r26
 afe:	f0 40       	sbci	r31, 0x00	; 0
 b00:	53 95       	inc	r21
 b02:	c9 f7       	brne	.-14     	; 0xaf6 <__addsf3x+0x52>
 b04:	7e f4       	brtc	.+30     	; 0xb24 <__addsf3x+0x80>
 b06:	1f 16       	cp	r1, r31
 b08:	ba 0b       	sbc	r27, r26
 b0a:	62 0b       	sbc	r22, r18
 b0c:	73 0b       	sbc	r23, r19
 b0e:	84 0b       	sbc	r24, r20
 b10:	ba f0       	brmi	.+46     	; 0xb40 <__addsf3x+0x9c>
 b12:	91 50       	subi	r25, 0x01	; 1
 b14:	a1 f0       	breq	.+40     	; 0xb3e <__addsf3x+0x9a>
 b16:	ff 0f       	add	r31, r31
 b18:	bb 1f       	adc	r27, r27
 b1a:	66 1f       	adc	r22, r22
 b1c:	77 1f       	adc	r23, r23
 b1e:	88 1f       	adc	r24, r24
 b20:	c2 f7       	brpl	.-16     	; 0xb12 <__addsf3x+0x6e>
 b22:	0e c0       	rjmp	.+28     	; 0xb40 <__addsf3x+0x9c>
 b24:	ba 0f       	add	r27, r26
 b26:	62 1f       	adc	r22, r18
 b28:	73 1f       	adc	r23, r19
 b2a:	84 1f       	adc	r24, r20
 b2c:	48 f4       	brcc	.+18     	; 0xb40 <__addsf3x+0x9c>
 b2e:	87 95       	ror	r24
 b30:	77 95       	ror	r23
 b32:	67 95       	ror	r22
 b34:	b7 95       	ror	r27
 b36:	f7 95       	ror	r31
 b38:	9e 3f       	cpi	r25, 0xFE	; 254
 b3a:	08 f0       	brcs	.+2      	; 0xb3e <__addsf3x+0x9a>
 b3c:	b0 cf       	rjmp	.-160    	; 0xa9e <__addsf3+0x28>
 b3e:	93 95       	inc	r25
 b40:	88 0f       	add	r24, r24
 b42:	08 f0       	brcs	.+2      	; 0xb46 <__addsf3x+0xa2>
 b44:	99 27       	eor	r25, r25
 b46:	ee 0f       	add	r30, r30
 b48:	97 95       	ror	r25
 b4a:	87 95       	ror	r24
 b4c:	08 95       	ret

00000b4e <__cmpsf2>:
 b4e:	0e 94 8a 06 	call	0xd14	; 0xd14 <__fp_cmp>
 b52:	08 f4       	brcc	.+2      	; 0xb56 <__cmpsf2+0x8>
 b54:	81 e0       	ldi	r24, 0x01	; 1
 b56:	08 95       	ret

00000b58 <__divsf3>:
 b58:	0e 94 c0 05 	call	0xb80	; 0xb80 <__divsf3x>
 b5c:	0c 94 c5 06 	jmp	0xd8a	; 0xd8a <__fp_round>
 b60:	0e 94 be 06 	call	0xd7c	; 0xd7c <__fp_pscB>
 b64:	58 f0       	brcs	.+22     	; 0xb7c <__divsf3+0x24>
 b66:	0e 94 b7 06 	call	0xd6e	; 0xd6e <__fp_pscA>
 b6a:	40 f0       	brcs	.+16     	; 0xb7c <__divsf3+0x24>
 b6c:	29 f4       	brne	.+10     	; 0xb78 <__divsf3+0x20>
 b6e:	5f 3f       	cpi	r21, 0xFF	; 255
 b70:	29 f0       	breq	.+10     	; 0xb7c <__divsf3+0x24>
 b72:	0c 94 ae 06 	jmp	0xd5c	; 0xd5c <__fp_inf>
 b76:	51 11       	cpse	r21, r1
 b78:	0c 94 f9 06 	jmp	0xdf2	; 0xdf2 <__fp_szero>
 b7c:	0c 94 b4 06 	jmp	0xd68	; 0xd68 <__fp_nan>

00000b80 <__divsf3x>:
 b80:	0e 94 d6 06 	call	0xdac	; 0xdac <__fp_split3>
 b84:	68 f3       	brcs	.-38     	; 0xb60 <__divsf3+0x8>

00000b86 <__divsf3_pse>:
 b86:	99 23       	and	r25, r25
 b88:	b1 f3       	breq	.-20     	; 0xb76 <__divsf3+0x1e>
 b8a:	55 23       	and	r21, r21
 b8c:	91 f3       	breq	.-28     	; 0xb72 <__divsf3+0x1a>
 b8e:	95 1b       	sub	r25, r21
 b90:	55 0b       	sbc	r21, r21
 b92:	bb 27       	eor	r27, r27
 b94:	aa 27       	eor	r26, r26
 b96:	62 17       	cp	r22, r18
 b98:	73 07       	cpc	r23, r19
 b9a:	84 07       	cpc	r24, r20
 b9c:	38 f0       	brcs	.+14     	; 0xbac <__divsf3_pse+0x26>
 b9e:	9f 5f       	subi	r25, 0xFF	; 255
 ba0:	5f 4f       	sbci	r21, 0xFF	; 255
 ba2:	22 0f       	add	r18, r18
 ba4:	33 1f       	adc	r19, r19
 ba6:	44 1f       	adc	r20, r20
 ba8:	aa 1f       	adc	r26, r26
 baa:	a9 f3       	breq	.-22     	; 0xb96 <__divsf3_pse+0x10>
 bac:	35 d0       	rcall	.+106    	; 0xc18 <__divsf3_pse+0x92>
 bae:	0e 2e       	mov	r0, r30
 bb0:	3a f0       	brmi	.+14     	; 0xbc0 <__divsf3_pse+0x3a>
 bb2:	e0 e8       	ldi	r30, 0x80	; 128
 bb4:	32 d0       	rcall	.+100    	; 0xc1a <__divsf3_pse+0x94>
 bb6:	91 50       	subi	r25, 0x01	; 1
 bb8:	50 40       	sbci	r21, 0x00	; 0
 bba:	e6 95       	lsr	r30
 bbc:	00 1c       	adc	r0, r0
 bbe:	ca f7       	brpl	.-14     	; 0xbb2 <__divsf3_pse+0x2c>
 bc0:	2b d0       	rcall	.+86     	; 0xc18 <__divsf3_pse+0x92>
 bc2:	fe 2f       	mov	r31, r30
 bc4:	29 d0       	rcall	.+82     	; 0xc18 <__divsf3_pse+0x92>
 bc6:	66 0f       	add	r22, r22
 bc8:	77 1f       	adc	r23, r23
 bca:	88 1f       	adc	r24, r24
 bcc:	bb 1f       	adc	r27, r27
 bce:	26 17       	cp	r18, r22
 bd0:	37 07       	cpc	r19, r23
 bd2:	48 07       	cpc	r20, r24
 bd4:	ab 07       	cpc	r26, r27
 bd6:	b0 e8       	ldi	r27, 0x80	; 128
 bd8:	09 f0       	breq	.+2      	; 0xbdc <__divsf3_pse+0x56>
 bda:	bb 0b       	sbc	r27, r27
 bdc:	80 2d       	mov	r24, r0
 bde:	bf 01       	movw	r22, r30
 be0:	ff 27       	eor	r31, r31
 be2:	93 58       	subi	r25, 0x83	; 131
 be4:	5f 4f       	sbci	r21, 0xFF	; 255
 be6:	3a f0       	brmi	.+14     	; 0xbf6 <__divsf3_pse+0x70>
 be8:	9e 3f       	cpi	r25, 0xFE	; 254
 bea:	51 05       	cpc	r21, r1
 bec:	78 f0       	brcs	.+30     	; 0xc0c <__divsf3_pse+0x86>
 bee:	0c 94 ae 06 	jmp	0xd5c	; 0xd5c <__fp_inf>
 bf2:	0c 94 f9 06 	jmp	0xdf2	; 0xdf2 <__fp_szero>
 bf6:	5f 3f       	cpi	r21, 0xFF	; 255
 bf8:	e4 f3       	brlt	.-8      	; 0xbf2 <__divsf3_pse+0x6c>
 bfa:	98 3e       	cpi	r25, 0xE8	; 232
 bfc:	d4 f3       	brlt	.-12     	; 0xbf2 <__divsf3_pse+0x6c>
 bfe:	86 95       	lsr	r24
 c00:	77 95       	ror	r23
 c02:	67 95       	ror	r22
 c04:	b7 95       	ror	r27
 c06:	f7 95       	ror	r31
 c08:	9f 5f       	subi	r25, 0xFF	; 255
 c0a:	c9 f7       	brne	.-14     	; 0xbfe <__divsf3_pse+0x78>
 c0c:	88 0f       	add	r24, r24
 c0e:	91 1d       	adc	r25, r1
 c10:	96 95       	lsr	r25
 c12:	87 95       	ror	r24
 c14:	97 f9       	bld	r25, 7
 c16:	08 95       	ret
 c18:	e1 e0       	ldi	r30, 0x01	; 1
 c1a:	66 0f       	add	r22, r22
 c1c:	77 1f       	adc	r23, r23
 c1e:	88 1f       	adc	r24, r24
 c20:	bb 1f       	adc	r27, r27
 c22:	62 17       	cp	r22, r18
 c24:	73 07       	cpc	r23, r19
 c26:	84 07       	cpc	r24, r20
 c28:	ba 07       	cpc	r27, r26
 c2a:	20 f0       	brcs	.+8      	; 0xc34 <__divsf3_pse+0xae>
 c2c:	62 1b       	sub	r22, r18
 c2e:	73 0b       	sbc	r23, r19
 c30:	84 0b       	sbc	r24, r20
 c32:	ba 0b       	sbc	r27, r26
 c34:	ee 1f       	adc	r30, r30
 c36:	88 f7       	brcc	.-30     	; 0xc1a <__divsf3_pse+0x94>
 c38:	e0 95       	com	r30
 c3a:	08 95       	ret

00000c3c <__fixunssfsi>:
 c3c:	0e 94 de 06 	call	0xdbc	; 0xdbc <__fp_splitA>
 c40:	88 f0       	brcs	.+34     	; 0xc64 <__fixunssfsi+0x28>
 c42:	9f 57       	subi	r25, 0x7F	; 127
 c44:	98 f0       	brcs	.+38     	; 0xc6c <__fixunssfsi+0x30>
 c46:	b9 2f       	mov	r27, r25
 c48:	99 27       	eor	r25, r25
 c4a:	b7 51       	subi	r27, 0x17	; 23
 c4c:	b0 f0       	brcs	.+44     	; 0xc7a <__fixunssfsi+0x3e>
 c4e:	e1 f0       	breq	.+56     	; 0xc88 <__fixunssfsi+0x4c>
 c50:	66 0f       	add	r22, r22
 c52:	77 1f       	adc	r23, r23
 c54:	88 1f       	adc	r24, r24
 c56:	99 1f       	adc	r25, r25
 c58:	1a f0       	brmi	.+6      	; 0xc60 <__fixunssfsi+0x24>
 c5a:	ba 95       	dec	r27
 c5c:	c9 f7       	brne	.-14     	; 0xc50 <__fixunssfsi+0x14>
 c5e:	14 c0       	rjmp	.+40     	; 0xc88 <__fixunssfsi+0x4c>
 c60:	b1 30       	cpi	r27, 0x01	; 1
 c62:	91 f0       	breq	.+36     	; 0xc88 <__fixunssfsi+0x4c>
 c64:	0e 94 f8 06 	call	0xdf0	; 0xdf0 <__fp_zero>
 c68:	b1 e0       	ldi	r27, 0x01	; 1
 c6a:	08 95       	ret
 c6c:	0c 94 f8 06 	jmp	0xdf0	; 0xdf0 <__fp_zero>
 c70:	67 2f       	mov	r22, r23
 c72:	78 2f       	mov	r23, r24
 c74:	88 27       	eor	r24, r24
 c76:	b8 5f       	subi	r27, 0xF8	; 248
 c78:	39 f0       	breq	.+14     	; 0xc88 <__fixunssfsi+0x4c>
 c7a:	b9 3f       	cpi	r27, 0xF9	; 249
 c7c:	cc f3       	brlt	.-14     	; 0xc70 <__fixunssfsi+0x34>
 c7e:	86 95       	lsr	r24
 c80:	77 95       	ror	r23
 c82:	67 95       	ror	r22
 c84:	b3 95       	inc	r27
 c86:	d9 f7       	brne	.-10     	; 0xc7e <__fixunssfsi+0x42>
 c88:	3e f4       	brtc	.+14     	; 0xc98 <__fixunssfsi+0x5c>
 c8a:	90 95       	com	r25
 c8c:	80 95       	com	r24
 c8e:	70 95       	com	r23
 c90:	61 95       	neg	r22
 c92:	7f 4f       	sbci	r23, 0xFF	; 255
 c94:	8f 4f       	sbci	r24, 0xFF	; 255
 c96:	9f 4f       	sbci	r25, 0xFF	; 255
 c98:	08 95       	ret

00000c9a <__floatunsisf>:
 c9a:	e8 94       	clt
 c9c:	09 c0       	rjmp	.+18     	; 0xcb0 <__floatsisf+0x12>

00000c9e <__floatsisf>:
 c9e:	97 fb       	bst	r25, 7
 ca0:	3e f4       	brtc	.+14     	; 0xcb0 <__floatsisf+0x12>
 ca2:	90 95       	com	r25
 ca4:	80 95       	com	r24
 ca6:	70 95       	com	r23
 ca8:	61 95       	neg	r22
 caa:	7f 4f       	sbci	r23, 0xFF	; 255
 cac:	8f 4f       	sbci	r24, 0xFF	; 255
 cae:	9f 4f       	sbci	r25, 0xFF	; 255
 cb0:	99 23       	and	r25, r25
 cb2:	a9 f0       	breq	.+42     	; 0xcde <__floatsisf+0x40>
 cb4:	f9 2f       	mov	r31, r25
 cb6:	96 e9       	ldi	r25, 0x96	; 150
 cb8:	bb 27       	eor	r27, r27
 cba:	93 95       	inc	r25
 cbc:	f6 95       	lsr	r31
 cbe:	87 95       	ror	r24
 cc0:	77 95       	ror	r23
 cc2:	67 95       	ror	r22
 cc4:	b7 95       	ror	r27
 cc6:	f1 11       	cpse	r31, r1
 cc8:	f8 cf       	rjmp	.-16     	; 0xcba <__floatsisf+0x1c>
 cca:	fa f4       	brpl	.+62     	; 0xd0a <__floatsisf+0x6c>
 ccc:	bb 0f       	add	r27, r27
 cce:	11 f4       	brne	.+4      	; 0xcd4 <__floatsisf+0x36>
 cd0:	60 ff       	sbrs	r22, 0
 cd2:	1b c0       	rjmp	.+54     	; 0xd0a <__floatsisf+0x6c>
 cd4:	6f 5f       	subi	r22, 0xFF	; 255
 cd6:	7f 4f       	sbci	r23, 0xFF	; 255
 cd8:	8f 4f       	sbci	r24, 0xFF	; 255
 cda:	9f 4f       	sbci	r25, 0xFF	; 255
 cdc:	16 c0       	rjmp	.+44     	; 0xd0a <__floatsisf+0x6c>
 cde:	88 23       	and	r24, r24
 ce0:	11 f0       	breq	.+4      	; 0xce6 <__floatsisf+0x48>
 ce2:	96 e9       	ldi	r25, 0x96	; 150
 ce4:	11 c0       	rjmp	.+34     	; 0xd08 <__floatsisf+0x6a>
 ce6:	77 23       	and	r23, r23
 ce8:	21 f0       	breq	.+8      	; 0xcf2 <__floatsisf+0x54>
 cea:	9e e8       	ldi	r25, 0x8E	; 142
 cec:	87 2f       	mov	r24, r23
 cee:	76 2f       	mov	r23, r22
 cf0:	05 c0       	rjmp	.+10     	; 0xcfc <__floatsisf+0x5e>
 cf2:	66 23       	and	r22, r22
 cf4:	71 f0       	breq	.+28     	; 0xd12 <__floatsisf+0x74>
 cf6:	96 e8       	ldi	r25, 0x86	; 134
 cf8:	86 2f       	mov	r24, r22
 cfa:	70 e0       	ldi	r23, 0x00	; 0
 cfc:	60 e0       	ldi	r22, 0x00	; 0
 cfe:	2a f0       	brmi	.+10     	; 0xd0a <__floatsisf+0x6c>
 d00:	9a 95       	dec	r25
 d02:	66 0f       	add	r22, r22
 d04:	77 1f       	adc	r23, r23
 d06:	88 1f       	adc	r24, r24
 d08:	da f7       	brpl	.-10     	; 0xd00 <__floatsisf+0x62>
 d0a:	88 0f       	add	r24, r24
 d0c:	96 95       	lsr	r25
 d0e:	87 95       	ror	r24
 d10:	97 f9       	bld	r25, 7
 d12:	08 95       	ret

00000d14 <__fp_cmp>:
 d14:	99 0f       	add	r25, r25
 d16:	00 08       	sbc	r0, r0
 d18:	55 0f       	add	r21, r21
 d1a:	aa 0b       	sbc	r26, r26
 d1c:	e0 e8       	ldi	r30, 0x80	; 128
 d1e:	fe ef       	ldi	r31, 0xFE	; 254
 d20:	16 16       	cp	r1, r22
 d22:	17 06       	cpc	r1, r23
 d24:	e8 07       	cpc	r30, r24
 d26:	f9 07       	cpc	r31, r25
 d28:	c0 f0       	brcs	.+48     	; 0xd5a <__fp_cmp+0x46>
 d2a:	12 16       	cp	r1, r18
 d2c:	13 06       	cpc	r1, r19
 d2e:	e4 07       	cpc	r30, r20
 d30:	f5 07       	cpc	r31, r21
 d32:	98 f0       	brcs	.+38     	; 0xd5a <__fp_cmp+0x46>
 d34:	62 1b       	sub	r22, r18
 d36:	73 0b       	sbc	r23, r19
 d38:	84 0b       	sbc	r24, r20
 d3a:	95 0b       	sbc	r25, r21
 d3c:	39 f4       	brne	.+14     	; 0xd4c <__fp_cmp+0x38>
 d3e:	0a 26       	eor	r0, r26
 d40:	61 f0       	breq	.+24     	; 0xd5a <__fp_cmp+0x46>
 d42:	23 2b       	or	r18, r19
 d44:	24 2b       	or	r18, r20
 d46:	25 2b       	or	r18, r21
 d48:	21 f4       	brne	.+8      	; 0xd52 <__fp_cmp+0x3e>
 d4a:	08 95       	ret
 d4c:	0a 26       	eor	r0, r26
 d4e:	09 f4       	brne	.+2      	; 0xd52 <__fp_cmp+0x3e>
 d50:	a1 40       	sbci	r26, 0x01	; 1
 d52:	a6 95       	lsr	r26
 d54:	8f ef       	ldi	r24, 0xFF	; 255
 d56:	81 1d       	adc	r24, r1
 d58:	81 1d       	adc	r24, r1
 d5a:	08 95       	ret

00000d5c <__fp_inf>:
 d5c:	97 f9       	bld	r25, 7
 d5e:	9f 67       	ori	r25, 0x7F	; 127
 d60:	80 e8       	ldi	r24, 0x80	; 128
 d62:	70 e0       	ldi	r23, 0x00	; 0
 d64:	60 e0       	ldi	r22, 0x00	; 0
 d66:	08 95       	ret

00000d68 <__fp_nan>:
 d68:	9f ef       	ldi	r25, 0xFF	; 255
 d6a:	80 ec       	ldi	r24, 0xC0	; 192
 d6c:	08 95       	ret

00000d6e <__fp_pscA>:
 d6e:	00 24       	eor	r0, r0
 d70:	0a 94       	dec	r0
 d72:	16 16       	cp	r1, r22
 d74:	17 06       	cpc	r1, r23
 d76:	18 06       	cpc	r1, r24
 d78:	09 06       	cpc	r0, r25
 d7a:	08 95       	ret

00000d7c <__fp_pscB>:
 d7c:	00 24       	eor	r0, r0
 d7e:	0a 94       	dec	r0
 d80:	12 16       	cp	r1, r18
 d82:	13 06       	cpc	r1, r19
 d84:	14 06       	cpc	r1, r20
 d86:	05 06       	cpc	r0, r21
 d88:	08 95       	ret

00000d8a <__fp_round>:
 d8a:	09 2e       	mov	r0, r25
 d8c:	03 94       	inc	r0
 d8e:	00 0c       	add	r0, r0
 d90:	11 f4       	brne	.+4      	; 0xd96 <__fp_round+0xc>
 d92:	88 23       	and	r24, r24
 d94:	52 f0       	brmi	.+20     	; 0xdaa <__fp_round+0x20>
 d96:	bb 0f       	add	r27, r27
 d98:	40 f4       	brcc	.+16     	; 0xdaa <__fp_round+0x20>
 d9a:	bf 2b       	or	r27, r31
 d9c:	11 f4       	brne	.+4      	; 0xda2 <__fp_round+0x18>
 d9e:	60 ff       	sbrs	r22, 0
 da0:	04 c0       	rjmp	.+8      	; 0xdaa <__fp_round+0x20>
 da2:	6f 5f       	subi	r22, 0xFF	; 255
 da4:	7f 4f       	sbci	r23, 0xFF	; 255
 da6:	8f 4f       	sbci	r24, 0xFF	; 255
 da8:	9f 4f       	sbci	r25, 0xFF	; 255
 daa:	08 95       	ret

00000dac <__fp_split3>:
 dac:	57 fd       	sbrc	r21, 7
 dae:	90 58       	subi	r25, 0x80	; 128
 db0:	44 0f       	add	r20, r20
 db2:	55 1f       	adc	r21, r21
 db4:	59 f0       	breq	.+22     	; 0xdcc <__fp_splitA+0x10>
 db6:	5f 3f       	cpi	r21, 0xFF	; 255
 db8:	71 f0       	breq	.+28     	; 0xdd6 <__fp_splitA+0x1a>
 dba:	47 95       	ror	r20

00000dbc <__fp_splitA>:
 dbc:	88 0f       	add	r24, r24
 dbe:	97 fb       	bst	r25, 7
 dc0:	99 1f       	adc	r25, r25
 dc2:	61 f0       	breq	.+24     	; 0xddc <__fp_splitA+0x20>
 dc4:	9f 3f       	cpi	r25, 0xFF	; 255
 dc6:	79 f0       	breq	.+30     	; 0xde6 <__fp_splitA+0x2a>
 dc8:	87 95       	ror	r24
 dca:	08 95       	ret
 dcc:	12 16       	cp	r1, r18
 dce:	13 06       	cpc	r1, r19
 dd0:	14 06       	cpc	r1, r20
 dd2:	55 1f       	adc	r21, r21
 dd4:	f2 cf       	rjmp	.-28     	; 0xdba <__fp_split3+0xe>
 dd6:	46 95       	lsr	r20
 dd8:	f1 df       	rcall	.-30     	; 0xdbc <__fp_splitA>
 dda:	08 c0       	rjmp	.+16     	; 0xdec <__fp_splitA+0x30>
 ddc:	16 16       	cp	r1, r22
 dde:	17 06       	cpc	r1, r23
 de0:	18 06       	cpc	r1, r24
 de2:	99 1f       	adc	r25, r25
 de4:	f1 cf       	rjmp	.-30     	; 0xdc8 <__fp_splitA+0xc>
 de6:	86 95       	lsr	r24
 de8:	71 05       	cpc	r23, r1
 dea:	61 05       	cpc	r22, r1
 dec:	08 94       	sec
 dee:	08 95       	ret

00000df0 <__fp_zero>:
 df0:	e8 94       	clt

00000df2 <__fp_szero>:
 df2:	bb 27       	eor	r27, r27
 df4:	66 27       	eor	r22, r22
 df6:	77 27       	eor	r23, r23
 df8:	cb 01       	movw	r24, r22
 dfa:	97 f9       	bld	r25, 7
 dfc:	08 95       	ret

00000dfe <__gesf2>:
 dfe:	0e 94 8a 06 	call	0xd14	; 0xd14 <__fp_cmp>
 e02:	08 f4       	brcc	.+2      	; 0xe06 <__gesf2+0x8>
 e04:	8f ef       	ldi	r24, 0xFF	; 255
 e06:	08 95       	ret

00000e08 <__mulsf3>:
 e08:	0e 94 17 07 	call	0xe2e	; 0xe2e <__mulsf3x>
 e0c:	0c 94 c5 06 	jmp	0xd8a	; 0xd8a <__fp_round>
 e10:	0e 94 b7 06 	call	0xd6e	; 0xd6e <__fp_pscA>
 e14:	38 f0       	brcs	.+14     	; 0xe24 <__mulsf3+0x1c>
 e16:	0e 94 be 06 	call	0xd7c	; 0xd7c <__fp_pscB>
 e1a:	20 f0       	brcs	.+8      	; 0xe24 <__mulsf3+0x1c>
 e1c:	95 23       	and	r25, r21
 e1e:	11 f0       	breq	.+4      	; 0xe24 <__mulsf3+0x1c>
 e20:	0c 94 ae 06 	jmp	0xd5c	; 0xd5c <__fp_inf>
 e24:	0c 94 b4 06 	jmp	0xd68	; 0xd68 <__fp_nan>
 e28:	11 24       	eor	r1, r1
 e2a:	0c 94 f9 06 	jmp	0xdf2	; 0xdf2 <__fp_szero>

00000e2e <__mulsf3x>:
 e2e:	0e 94 d6 06 	call	0xdac	; 0xdac <__fp_split3>
 e32:	70 f3       	brcs	.-36     	; 0xe10 <__mulsf3+0x8>

00000e34 <__mulsf3_pse>:
 e34:	95 9f       	mul	r25, r21
 e36:	c1 f3       	breq	.-16     	; 0xe28 <__mulsf3+0x20>
 e38:	95 0f       	add	r25, r21
 e3a:	50 e0       	ldi	r21, 0x00	; 0
 e3c:	55 1f       	adc	r21, r21
 e3e:	62 9f       	mul	r22, r18
 e40:	f0 01       	movw	r30, r0
 e42:	72 9f       	mul	r23, r18
 e44:	bb 27       	eor	r27, r27
 e46:	f0 0d       	add	r31, r0
 e48:	b1 1d       	adc	r27, r1
 e4a:	63 9f       	mul	r22, r19
 e4c:	aa 27       	eor	r26, r26
 e4e:	f0 0d       	add	r31, r0
 e50:	b1 1d       	adc	r27, r1
 e52:	aa 1f       	adc	r26, r26
 e54:	64 9f       	mul	r22, r20
 e56:	66 27       	eor	r22, r22
 e58:	b0 0d       	add	r27, r0
 e5a:	a1 1d       	adc	r26, r1
 e5c:	66 1f       	adc	r22, r22
 e5e:	82 9f       	mul	r24, r18
 e60:	22 27       	eor	r18, r18
 e62:	b0 0d       	add	r27, r0
 e64:	a1 1d       	adc	r26, r1
 e66:	62 1f       	adc	r22, r18
 e68:	73 9f       	mul	r23, r19
 e6a:	b0 0d       	add	r27, r0
 e6c:	a1 1d       	adc	r26, r1
 e6e:	62 1f       	adc	r22, r18
 e70:	83 9f       	mul	r24, r19
 e72:	a0 0d       	add	r26, r0
 e74:	61 1d       	adc	r22, r1
 e76:	22 1f       	adc	r18, r18
 e78:	74 9f       	mul	r23, r20
 e7a:	33 27       	eor	r19, r19
 e7c:	a0 0d       	add	r26, r0
 e7e:	61 1d       	adc	r22, r1
 e80:	23 1f       	adc	r18, r19
 e82:	84 9f       	mul	r24, r20
 e84:	60 0d       	add	r22, r0
 e86:	21 1d       	adc	r18, r1
 e88:	82 2f       	mov	r24, r18
 e8a:	76 2f       	mov	r23, r22
 e8c:	6a 2f       	mov	r22, r26
 e8e:	11 24       	eor	r1, r1
 e90:	9f 57       	subi	r25, 0x7F	; 127
 e92:	50 40       	sbci	r21, 0x00	; 0
 e94:	9a f0       	brmi	.+38     	; 0xebc <__mulsf3_pse+0x88>
 e96:	f1 f0       	breq	.+60     	; 0xed4 <__mulsf3_pse+0xa0>
 e98:	88 23       	and	r24, r24
 e9a:	4a f0       	brmi	.+18     	; 0xeae <__mulsf3_pse+0x7a>
 e9c:	ee 0f       	add	r30, r30
 e9e:	ff 1f       	adc	r31, r31
 ea0:	bb 1f       	adc	r27, r27
 ea2:	66 1f       	adc	r22, r22
 ea4:	77 1f       	adc	r23, r23
 ea6:	88 1f       	adc	r24, r24
 ea8:	91 50       	subi	r25, 0x01	; 1
 eaa:	50 40       	sbci	r21, 0x00	; 0
 eac:	a9 f7       	brne	.-22     	; 0xe98 <__mulsf3_pse+0x64>
 eae:	9e 3f       	cpi	r25, 0xFE	; 254
 eb0:	51 05       	cpc	r21, r1
 eb2:	80 f0       	brcs	.+32     	; 0xed4 <__mulsf3_pse+0xa0>
 eb4:	0c 94 ae 06 	jmp	0xd5c	; 0xd5c <__fp_inf>
 eb8:	0c 94 f9 06 	jmp	0xdf2	; 0xdf2 <__fp_szero>
 ebc:	5f 3f       	cpi	r21, 0xFF	; 255
 ebe:	e4 f3       	brlt	.-8      	; 0xeb8 <__mulsf3_pse+0x84>
 ec0:	98 3e       	cpi	r25, 0xE8	; 232
 ec2:	d4 f3       	brlt	.-12     	; 0xeb8 <__mulsf3_pse+0x84>
 ec4:	86 95       	lsr	r24
 ec6:	77 95       	ror	r23
 ec8:	67 95       	ror	r22
 eca:	b7 95       	ror	r27
 ecc:	f7 95       	ror	r31
 ece:	e7 95       	ror	r30
 ed0:	9f 5f       	subi	r25, 0xFF	; 255
 ed2:	c1 f7       	brne	.-16     	; 0xec4 <__mulsf3_pse+0x90>
 ed4:	fe 2b       	or	r31, r30
 ed6:	88 0f       	add	r24, r24
 ed8:	91 1d       	adc	r25, r1
 eda:	96 95       	lsr	r25
 edc:	87 95       	ror	r24
 ede:	97 f9       	bld	r25, 7
 ee0:	08 95       	ret

00000ee2 <__udivmodsi4>:
 ee2:	a1 e2       	ldi	r26, 0x21	; 33
 ee4:	1a 2e       	mov	r1, r26
 ee6:	aa 1b       	sub	r26, r26
 ee8:	bb 1b       	sub	r27, r27
 eea:	fd 01       	movw	r30, r26
 eec:	0d c0       	rjmp	.+26     	; 0xf08 <__udivmodsi4_ep>

00000eee <__udivmodsi4_loop>:
 eee:	aa 1f       	adc	r26, r26
 ef0:	bb 1f       	adc	r27, r27
 ef2:	ee 1f       	adc	r30, r30
 ef4:	ff 1f       	adc	r31, r31
 ef6:	a2 17       	cp	r26, r18
 ef8:	b3 07       	cpc	r27, r19
 efa:	e4 07       	cpc	r30, r20
 efc:	f5 07       	cpc	r31, r21
 efe:	20 f0       	brcs	.+8      	; 0xf08 <__udivmodsi4_ep>
 f00:	a2 1b       	sub	r26, r18
 f02:	b3 0b       	sbc	r27, r19
 f04:	e4 0b       	sbc	r30, r20
 f06:	f5 0b       	sbc	r31, r21

00000f08 <__udivmodsi4_ep>:
 f08:	66 1f       	adc	r22, r22
 f0a:	77 1f       	adc	r23, r23
 f0c:	88 1f       	adc	r24, r24
 f0e:	99 1f       	adc	r25, r25
 f10:	1a 94       	dec	r1
 f12:	69 f7       	brne	.-38     	; 0xeee <__udivmodsi4_loop>
 f14:	60 95       	com	r22
 f16:	70 95       	com	r23
 f18:	80 95       	com	r24
 f1a:	90 95       	com	r25
 f1c:	9b 01       	movw	r18, r22
 f1e:	ac 01       	movw	r20, r24
 f20:	bd 01       	movw	r22, r26
 f22:	cf 01       	movw	r24, r30
 f24:	08 95       	ret

00000f26 <__umulhisi3>:
 f26:	a2 9f       	mul	r26, r18
 f28:	b0 01       	movw	r22, r0
 f2a:	b3 9f       	mul	r27, r19
 f2c:	c0 01       	movw	r24, r0
 f2e:	a3 9f       	mul	r26, r19
 f30:	70 0d       	add	r23, r0
 f32:	81 1d       	adc	r24, r1
 f34:	11 24       	eor	r1, r1
 f36:	91 1d       	adc	r25, r1
 f38:	b2 9f       	mul	r27, r18
 f3a:	70 0d       	add	r23, r0
 f3c:	81 1d       	adc	r24, r1
 f3e:	11 24       	eor	r1, r1
 f40:	91 1d       	adc	r25, r1
 f42:	08 95       	ret

00000f44 <eeprom_read_byte>:
 f44:	f9 99       	sbic	0x1f, 1	; 31
 f46:	fe cf       	rjmp	.-4      	; 0xf44 <eeprom_read_byte>
 f48:	92 bd       	out	0x22, r25	; 34
 f4a:	81 bd       	out	0x21, r24	; 33
 f4c:	f8 9a       	sbi	0x1f, 0	; 31
 f4e:	99 27       	eor	r25, r25
 f50:	80 b5       	in	r24, 0x20	; 32
 f52:	08 95       	ret

00000f54 <eeprom_update_byte>:
 f54:	26 2f       	mov	r18, r22

00000f56 <eeprom_update_r18>:
 f56:	f9 99       	sbic	0x1f, 1	; 31
 f58:	fe cf       	rjmp	.-4      	; 0xf56 <eeprom_update_r18>
 f5a:	92 bd       	out	0x22, r25	; 34
 f5c:	81 bd       	out	0x21, r24	; 33
 f5e:	f8 9a       	sbi	0x1f, 0	; 31
 f60:	01 97       	sbiw	r24, 0x01	; 1
 f62:	00 b4       	in	r0, 0x20	; 32
 f64:	02 16       	cp	r0, r18
 f66:	39 f0       	breq	.+14     	; 0xf76 <eeprom_update_r18+0x20>
 f68:	1f ba       	out	0x1f, r1	; 31
 f6a:	20 bd       	out	0x20, r18	; 32
 f6c:	0f b6       	in	r0, 0x3f	; 63
 f6e:	f8 94       	cli
 f70:	fa 9a       	sbi	0x1f, 2	; 31
 f72:	f9 9a       	sbi	0x1f, 1	; 31
 f74:	0f be       	out	0x3f, r0	; 63
 f76:	08 95       	ret

00000f78 <_exit>:
 f78:	f8 94       	cli

00000f7a <__stop_program>:
 f7a:	ff cf       	rjmp	.-2      	; 0xf7a <__stop_program>
